
/nfs/home/wuyuanlong/project/nexus-am_test/apps/MicroArchBench_rv/src/pipewidth/build/pipewidth-riscv64-xs.elf:     file format elf64-littleriscv


Disassembly of section .text:

0000000080000000 <_start>:
    80000000:	00000093          	li	ra,0
    80000004:	00000113          	li	sp,0
    80000008:	00000193          	li	gp,0
    8000000c:	00000213          	li	tp,0
    80000010:	00000293          	li	t0,0
    80000014:	00000313          	li	t1,0
    80000018:	00000393          	li	t2,0
    8000001c:	00000413          	li	s0,0
    80000020:	00000493          	li	s1,0
    80000024:	00000513          	li	a0,0
    80000028:	00000593          	li	a1,0
    8000002c:	00000613          	li	a2,0
    80000030:	00000693          	li	a3,0
    80000034:	00000713          	li	a4,0
    80000038:	00000793          	li	a5,0
    8000003c:	00000813          	li	a6,0
    80000040:	00000893          	li	a7,0
    80000044:	00000913          	li	s2,0
    80000048:	00000993          	li	s3,0
    8000004c:	00000a13          	li	s4,0
    80000050:	00000a93          	li	s5,0
    80000054:	00000b13          	li	s6,0
    80000058:	00000b93          	li	s7,0
    8000005c:	00000c13          	li	s8,0
    80000060:	00000c93          	li	s9,0
    80000064:	00000d13          	li	s10,0
    80000068:	00000d93          	li	s11,0
    8000006c:	00000e13          	li	t3,0
    80000070:	00000e93          	li	t4,0
    80000074:	00000f13          	li	t5,0
    80000078:	00000f93          	li	t6,0
    8000007c:	00000413          	li	s0,0
    80000080:	0000c117          	auipc	sp,0xc
    80000084:	f8010113          	addi	sp,sp,-128 # 8000c000 <_end>
    80000088:	6509                	lui	a0,0x2
    8000008a:	30052073          	csrs	mstatus,a0
    8000008e:	00305073          	csrwi	fcsr,0
    80000092:	f0000053          	fmv.w.x	ft0,zero
    80000096:	f00000d3          	fmv.w.x	ft1,zero
    8000009a:	f0000153          	fmv.w.x	ft2,zero
    8000009e:	f00001d3          	fmv.w.x	ft3,zero
    800000a2:	f0000253          	fmv.w.x	ft4,zero
    800000a6:	f00002d3          	fmv.w.x	ft5,zero
    800000aa:	f0000353          	fmv.w.x	ft6,zero
    800000ae:	f00003d3          	fmv.w.x	ft7,zero
    800000b2:	f0000453          	fmv.w.x	fs0,zero
    800000b6:	f00004d3          	fmv.w.x	fs1,zero
    800000ba:	f0000553          	fmv.w.x	fa0,zero
    800000be:	f00005d3          	fmv.w.x	fa1,zero
    800000c2:	f0000653          	fmv.w.x	fa2,zero
    800000c6:	f00006d3          	fmv.w.x	fa3,zero
    800000ca:	f0000753          	fmv.w.x	fa4,zero
    800000ce:	f00007d3          	fmv.w.x	fa5,zero
    800000d2:	f0000853          	fmv.w.x	fa6,zero
    800000d6:	f00008d3          	fmv.w.x	fa7,zero
    800000da:	f0000953          	fmv.w.x	fs2,zero
    800000de:	f00009d3          	fmv.w.x	fs3,zero
    800000e2:	f0000a53          	fmv.w.x	fs4,zero
    800000e6:	f0000ad3          	fmv.w.x	fs5,zero
    800000ea:	f0000b53          	fmv.w.x	fs6,zero
    800000ee:	f0000bd3          	fmv.w.x	fs7,zero
    800000f2:	f0000c53          	fmv.w.x	fs8,zero
    800000f6:	f0000cd3          	fmv.w.x	fs9,zero
    800000fa:	f0000d53          	fmv.w.x	fs10,zero
    800000fe:	f0000dd3          	fmv.w.x	fs11,zero
    80000102:	f0000e53          	fmv.w.x	ft8,zero
    80000106:	f0000ed3          	fmv.w.x	ft9,zero
    8000010a:	f0000f53          	fmv.w.x	ft10,zero
    8000010e:	f0000fd3          	fmv.w.x	ft11,zero
    80000112:	23c020ef          	jal	8000234e <_trm_init>
	...

0000000080000200 <aluwidth>:
    80000200:	1101                	addi	sp,sp,-32
    80000202:	ec22                	sd	s0,24(sp)
    80000204:	e826                	sd	s1,16(sp)
    80000206:	e44a                	sd	s2,8(sp)
    80000208:	882a                	mv	a6,a0
    8000020a:	00000013          	nop
    8000020e:	00000013          	nop
    80000212:	00000013          	nop
    80000216:	00000013          	nop
    8000021a:	00000013          	nop
    8000021e:	00000013          	nop
    80000222:	00000013          	nop
    80000226:	00000013          	nop
    8000022a:	00000013          	nop
    8000022e:	00000013          	nop
    80000232:	00000013          	nop
    80000236:	00000013          	nop
    8000023a:	00000013          	nop
    8000023e:	00000013          	nop
    80000242:	00000013          	nop
    80000246:	00000013          	nop
    8000024a:	00000013          	nop
    8000024e:	00000013          	nop
    80000252:	00000013          	nop
    80000256:	00000013          	nop
    8000025a:	00000013          	nop
    8000025e:	00000013          	nop
    80000262:	00000013          	nop
    80000266:	00000013          	nop
    8000026a:	00000013          	nop
    8000026e:	00000013          	nop
    80000272:	00000013          	nop
    80000276:	00000013          	nop
    8000027a:	00000013          	nop
    8000027e:	00000013          	nop
    80000282:	00000013          	nop
    80000286:	00000013          	nop
    8000028a:	00000013          	nop
    8000028e:	00000013          	nop
    80000292:	00000013          	nop
    80000296:	00000013          	nop
    8000029a:	00000013          	nop
    8000029e:	00000013          	nop
    800002a2:	00000013          	nop
    800002a6:	00000013          	nop
    800002aa:	00000013          	nop
    800002ae:	00000013          	nop
    800002b2:	00000013          	nop
    800002b6:	00000013          	nop
    800002ba:	00000013          	nop
    800002be:	00000013          	nop
    800002c2:	00000013          	nop
    800002c6:	00000013          	nop
    800002ca:	00000013          	nop
    800002ce:	00000013          	nop
    800002d2:	00000013          	nop
    800002d6:	00000013          	nop
    800002da:	00000013          	nop
    800002de:	00000013          	nop
    800002e2:	00000013          	nop
    800002e6:	00000013          	nop
    800002ea:	00000013          	nop
    800002ee:	00000013          	nop
    800002f2:	00000013          	nop
    800002f6:	00000013          	nop
    800002fa:	00000013          	nop
    800002fe:	0001                	nop
    80000300:	944a                	add	s0,s0,s2
    80000302:	94ca                	add	s1,s1,s2
    80000304:	954a                	add	a0,a0,s2
    80000306:	95ca                	add	a1,a1,s2
    80000308:	964a                	add	a2,a2,s2
    8000030a:	96ca                	add	a3,a3,s2
    8000030c:	974a                	add	a4,a4,s2
    8000030e:	97ca                	add	a5,a5,s2
    80000310:	944a                	add	s0,s0,s2
    80000312:	94ca                	add	s1,s1,s2
    80000314:	954a                	add	a0,a0,s2
    80000316:	95ca                	add	a1,a1,s2
    80000318:	964a                	add	a2,a2,s2
    8000031a:	96ca                	add	a3,a3,s2
    8000031c:	974a                	add	a4,a4,s2
    8000031e:	97ca                	add	a5,a5,s2
    80000320:	944a                	add	s0,s0,s2
    80000322:	94ca                	add	s1,s1,s2
    80000324:	954a                	add	a0,a0,s2
    80000326:	95ca                	add	a1,a1,s2
    80000328:	964a                	add	a2,a2,s2
    8000032a:	96ca                	add	a3,a3,s2
    8000032c:	974a                	add	a4,a4,s2
    8000032e:	97ca                	add	a5,a5,s2
    80000330:	944a                	add	s0,s0,s2
    80000332:	94ca                	add	s1,s1,s2
    80000334:	954a                	add	a0,a0,s2
    80000336:	95ca                	add	a1,a1,s2
    80000338:	964a                	add	a2,a2,s2
    8000033a:	96ca                	add	a3,a3,s2
    8000033c:	974a                	add	a4,a4,s2
    8000033e:	97ca                	add	a5,a5,s2
    80000340:	944a                	add	s0,s0,s2
    80000342:	94ca                	add	s1,s1,s2
    80000344:	954a                	add	a0,a0,s2
    80000346:	95ca                	add	a1,a1,s2
    80000348:	964a                	add	a2,a2,s2
    8000034a:	96ca                	add	a3,a3,s2
    8000034c:	974a                	add	a4,a4,s2
    8000034e:	97ca                	add	a5,a5,s2
    80000350:	944a                	add	s0,s0,s2
    80000352:	94ca                	add	s1,s1,s2
    80000354:	954a                	add	a0,a0,s2
    80000356:	95ca                	add	a1,a1,s2
    80000358:	964a                	add	a2,a2,s2
    8000035a:	96ca                	add	a3,a3,s2
    8000035c:	974a                	add	a4,a4,s2
    8000035e:	97ca                	add	a5,a5,s2
    80000360:	944a                	add	s0,s0,s2
    80000362:	94ca                	add	s1,s1,s2
    80000364:	954a                	add	a0,a0,s2
    80000366:	95ca                	add	a1,a1,s2
    80000368:	964a                	add	a2,a2,s2
    8000036a:	96ca                	add	a3,a3,s2
    8000036c:	974a                	add	a4,a4,s2
    8000036e:	97ca                	add	a5,a5,s2
    80000370:	944a                	add	s0,s0,s2
    80000372:	94ca                	add	s1,s1,s2
    80000374:	954a                	add	a0,a0,s2
    80000376:	95ca                	add	a1,a1,s2
    80000378:	964a                	add	a2,a2,s2
    8000037a:	96ca                	add	a3,a3,s2
    8000037c:	974a                	add	a4,a4,s2
    8000037e:	97ca                	add	a5,a5,s2
    80000380:	944a                	add	s0,s0,s2
    80000382:	94ca                	add	s1,s1,s2
    80000384:	954a                	add	a0,a0,s2
    80000386:	95ca                	add	a1,a1,s2
    80000388:	964a                	add	a2,a2,s2
    8000038a:	96ca                	add	a3,a3,s2
    8000038c:	974a                	add	a4,a4,s2
    8000038e:	97ca                	add	a5,a5,s2
    80000390:	944a                	add	s0,s0,s2
    80000392:	94ca                	add	s1,s1,s2
    80000394:	954a                	add	a0,a0,s2
    80000396:	95ca                	add	a1,a1,s2
    80000398:	964a                	add	a2,a2,s2
    8000039a:	96ca                	add	a3,a3,s2
    8000039c:	974a                	add	a4,a4,s2
    8000039e:	97ca                	add	a5,a5,s2
    800003a0:	944a                	add	s0,s0,s2
    800003a2:	94ca                	add	s1,s1,s2
    800003a4:	954a                	add	a0,a0,s2
    800003a6:	95ca                	add	a1,a1,s2
    800003a8:	964a                	add	a2,a2,s2
    800003aa:	96ca                	add	a3,a3,s2
    800003ac:	974a                	add	a4,a4,s2
    800003ae:	97ca                	add	a5,a5,s2
    800003b0:	944a                	add	s0,s0,s2
    800003b2:	94ca                	add	s1,s1,s2
    800003b4:	954a                	add	a0,a0,s2
    800003b6:	95ca                	add	a1,a1,s2
    800003b8:	964a                	add	a2,a2,s2
    800003ba:	96ca                	add	a3,a3,s2
    800003bc:	974a                	add	a4,a4,s2
    800003be:	97ca                	add	a5,a5,s2
    800003c0:	944a                	add	s0,s0,s2
    800003c2:	94ca                	add	s1,s1,s2
    800003c4:	954a                	add	a0,a0,s2
    800003c6:	95ca                	add	a1,a1,s2
    800003c8:	964a                	add	a2,a2,s2
    800003ca:	96ca                	add	a3,a3,s2
    800003cc:	974a                	add	a4,a4,s2
    800003ce:	97ca                	add	a5,a5,s2
    800003d0:	944a                	add	s0,s0,s2
    800003d2:	94ca                	add	s1,s1,s2
    800003d4:	954a                	add	a0,a0,s2
    800003d6:	95ca                	add	a1,a1,s2
    800003d8:	964a                	add	a2,a2,s2
    800003da:	96ca                	add	a3,a3,s2
    800003dc:	974a                	add	a4,a4,s2
    800003de:	97ca                	add	a5,a5,s2
    800003e0:	944a                	add	s0,s0,s2
    800003e2:	94ca                	add	s1,s1,s2
    800003e4:	954a                	add	a0,a0,s2
    800003e6:	95ca                	add	a1,a1,s2
    800003e8:	964a                	add	a2,a2,s2
    800003ea:	96ca                	add	a3,a3,s2
    800003ec:	974a                	add	a4,a4,s2
    800003ee:	97ca                	add	a5,a5,s2
    800003f0:	944a                	add	s0,s0,s2
    800003f2:	94ca                	add	s1,s1,s2
    800003f4:	954a                	add	a0,a0,s2
    800003f6:	95ca                	add	a1,a1,s2
    800003f8:	964a                	add	a2,a2,s2
    800003fa:	96ca                	add	a3,a3,s2
    800003fc:	974a                	add	a4,a4,s2
    800003fe:	97ca                	add	a5,a5,s2
    80000400:	944a                	add	s0,s0,s2
    80000402:	94ca                	add	s1,s1,s2
    80000404:	954a                	add	a0,a0,s2
    80000406:	95ca                	add	a1,a1,s2
    80000408:	964a                	add	a2,a2,s2
    8000040a:	96ca                	add	a3,a3,s2
    8000040c:	974a                	add	a4,a4,s2
    8000040e:	97ca                	add	a5,a5,s2
    80000410:	944a                	add	s0,s0,s2
    80000412:	94ca                	add	s1,s1,s2
    80000414:	954a                	add	a0,a0,s2
    80000416:	95ca                	add	a1,a1,s2
    80000418:	964a                	add	a2,a2,s2
    8000041a:	96ca                	add	a3,a3,s2
    8000041c:	974a                	add	a4,a4,s2
    8000041e:	97ca                	add	a5,a5,s2
    80000420:	944a                	add	s0,s0,s2
    80000422:	94ca                	add	s1,s1,s2
    80000424:	954a                	add	a0,a0,s2
    80000426:	95ca                	add	a1,a1,s2
    80000428:	964a                	add	a2,a2,s2
    8000042a:	96ca                	add	a3,a3,s2
    8000042c:	974a                	add	a4,a4,s2
    8000042e:	97ca                	add	a5,a5,s2
    80000430:	944a                	add	s0,s0,s2
    80000432:	94ca                	add	s1,s1,s2
    80000434:	954a                	add	a0,a0,s2
    80000436:	95ca                	add	a1,a1,s2
    80000438:	964a                	add	a2,a2,s2
    8000043a:	96ca                	add	a3,a3,s2
    8000043c:	974a                	add	a4,a4,s2
    8000043e:	97ca                	add	a5,a5,s2
    80000440:	944a                	add	s0,s0,s2
    80000442:	94ca                	add	s1,s1,s2
    80000444:	954a                	add	a0,a0,s2
    80000446:	95ca                	add	a1,a1,s2
    80000448:	964a                	add	a2,a2,s2
    8000044a:	96ca                	add	a3,a3,s2
    8000044c:	974a                	add	a4,a4,s2
    8000044e:	97ca                	add	a5,a5,s2
    80000450:	944a                	add	s0,s0,s2
    80000452:	94ca                	add	s1,s1,s2
    80000454:	954a                	add	a0,a0,s2
    80000456:	95ca                	add	a1,a1,s2
    80000458:	964a                	add	a2,a2,s2
    8000045a:	96ca                	add	a3,a3,s2
    8000045c:	974a                	add	a4,a4,s2
    8000045e:	97ca                	add	a5,a5,s2
    80000460:	944a                	add	s0,s0,s2
    80000462:	94ca                	add	s1,s1,s2
    80000464:	954a                	add	a0,a0,s2
    80000466:	95ca                	add	a1,a1,s2
    80000468:	964a                	add	a2,a2,s2
    8000046a:	96ca                	add	a3,a3,s2
    8000046c:	974a                	add	a4,a4,s2
    8000046e:	97ca                	add	a5,a5,s2
    80000470:	944a                	add	s0,s0,s2
    80000472:	94ca                	add	s1,s1,s2
    80000474:	954a                	add	a0,a0,s2
    80000476:	95ca                	add	a1,a1,s2
    80000478:	964a                	add	a2,a2,s2
    8000047a:	96ca                	add	a3,a3,s2
    8000047c:	974a                	add	a4,a4,s2
    8000047e:	97ca                	add	a5,a5,s2
    80000480:	944a                	add	s0,s0,s2
    80000482:	94ca                	add	s1,s1,s2
    80000484:	954a                	add	a0,a0,s2
    80000486:	95ca                	add	a1,a1,s2
    80000488:	964a                	add	a2,a2,s2
    8000048a:	96ca                	add	a3,a3,s2
    8000048c:	974a                	add	a4,a4,s2
    8000048e:	97ca                	add	a5,a5,s2
    80000490:	944a                	add	s0,s0,s2
    80000492:	94ca                	add	s1,s1,s2
    80000494:	954a                	add	a0,a0,s2
    80000496:	95ca                	add	a1,a1,s2
    80000498:	964a                	add	a2,a2,s2
    8000049a:	96ca                	add	a3,a3,s2
    8000049c:	974a                	add	a4,a4,s2
    8000049e:	97ca                	add	a5,a5,s2
    800004a0:	944a                	add	s0,s0,s2
    800004a2:	94ca                	add	s1,s1,s2
    800004a4:	954a                	add	a0,a0,s2
    800004a6:	95ca                	add	a1,a1,s2
    800004a8:	964a                	add	a2,a2,s2
    800004aa:	96ca                	add	a3,a3,s2
    800004ac:	974a                	add	a4,a4,s2
    800004ae:	97ca                	add	a5,a5,s2
    800004b0:	944a                	add	s0,s0,s2
    800004b2:	94ca                	add	s1,s1,s2
    800004b4:	954a                	add	a0,a0,s2
    800004b6:	95ca                	add	a1,a1,s2
    800004b8:	964a                	add	a2,a2,s2
    800004ba:	96ca                	add	a3,a3,s2
    800004bc:	974a                	add	a4,a4,s2
    800004be:	97ca                	add	a5,a5,s2
    800004c0:	944a                	add	s0,s0,s2
    800004c2:	94ca                	add	s1,s1,s2
    800004c4:	954a                	add	a0,a0,s2
    800004c6:	95ca                	add	a1,a1,s2
    800004c8:	964a                	add	a2,a2,s2
    800004ca:	96ca                	add	a3,a3,s2
    800004cc:	974a                	add	a4,a4,s2
    800004ce:	97ca                	add	a5,a5,s2
    800004d0:	944a                	add	s0,s0,s2
    800004d2:	94ca                	add	s1,s1,s2
    800004d4:	954a                	add	a0,a0,s2
    800004d6:	95ca                	add	a1,a1,s2
    800004d8:	964a                	add	a2,a2,s2
    800004da:	96ca                	add	a3,a3,s2
    800004dc:	974a                	add	a4,a4,s2
    800004de:	97ca                	add	a5,a5,s2
    800004e0:	944a                	add	s0,s0,s2
    800004e2:	94ca                	add	s1,s1,s2
    800004e4:	954a                	add	a0,a0,s2
    800004e6:	95ca                	add	a1,a1,s2
    800004e8:	964a                	add	a2,a2,s2
    800004ea:	96ca                	add	a3,a3,s2
    800004ec:	974a                	add	a4,a4,s2
    800004ee:	97ca                	add	a5,a5,s2
    800004f0:	944a                	add	s0,s0,s2
    800004f2:	94ca                	add	s1,s1,s2
    800004f4:	954a                	add	a0,a0,s2
    800004f6:	95ca                	add	a1,a1,s2
    800004f8:	964a                	add	a2,a2,s2
    800004fa:	96ca                	add	a3,a3,s2
    800004fc:	974a                	add	a4,a4,s2
    800004fe:	97ca                	add	a5,a5,s2
    80000500:	944a                	add	s0,s0,s2
    80000502:	94ca                	add	s1,s1,s2
    80000504:	954a                	add	a0,a0,s2
    80000506:	95ca                	add	a1,a1,s2
    80000508:	964a                	add	a2,a2,s2
    8000050a:	96ca                	add	a3,a3,s2
    8000050c:	974a                	add	a4,a4,s2
    8000050e:	97ca                	add	a5,a5,s2
    80000510:	944a                	add	s0,s0,s2
    80000512:	94ca                	add	s1,s1,s2
    80000514:	954a                	add	a0,a0,s2
    80000516:	95ca                	add	a1,a1,s2
    80000518:	964a                	add	a2,a2,s2
    8000051a:	96ca                	add	a3,a3,s2
    8000051c:	974a                	add	a4,a4,s2
    8000051e:	97ca                	add	a5,a5,s2
    80000520:	944a                	add	s0,s0,s2
    80000522:	94ca                	add	s1,s1,s2
    80000524:	954a                	add	a0,a0,s2
    80000526:	95ca                	add	a1,a1,s2
    80000528:	964a                	add	a2,a2,s2
    8000052a:	96ca                	add	a3,a3,s2
    8000052c:	974a                	add	a4,a4,s2
    8000052e:	97ca                	add	a5,a5,s2
    80000530:	944a                	add	s0,s0,s2
    80000532:	94ca                	add	s1,s1,s2
    80000534:	954a                	add	a0,a0,s2
    80000536:	95ca                	add	a1,a1,s2
    80000538:	964a                	add	a2,a2,s2
    8000053a:	96ca                	add	a3,a3,s2
    8000053c:	974a                	add	a4,a4,s2
    8000053e:	97ca                	add	a5,a5,s2
    80000540:	944a                	add	s0,s0,s2
    80000542:	94ca                	add	s1,s1,s2
    80000544:	954a                	add	a0,a0,s2
    80000546:	95ca                	add	a1,a1,s2
    80000548:	964a                	add	a2,a2,s2
    8000054a:	96ca                	add	a3,a3,s2
    8000054c:	974a                	add	a4,a4,s2
    8000054e:	97ca                	add	a5,a5,s2
    80000550:	944a                	add	s0,s0,s2
    80000552:	94ca                	add	s1,s1,s2
    80000554:	954a                	add	a0,a0,s2
    80000556:	95ca                	add	a1,a1,s2
    80000558:	964a                	add	a2,a2,s2
    8000055a:	96ca                	add	a3,a3,s2
    8000055c:	974a                	add	a4,a4,s2
    8000055e:	97ca                	add	a5,a5,s2
    80000560:	944a                	add	s0,s0,s2
    80000562:	94ca                	add	s1,s1,s2
    80000564:	954a                	add	a0,a0,s2
    80000566:	95ca                	add	a1,a1,s2
    80000568:	964a                	add	a2,a2,s2
    8000056a:	96ca                	add	a3,a3,s2
    8000056c:	974a                	add	a4,a4,s2
    8000056e:	97ca                	add	a5,a5,s2
    80000570:	944a                	add	s0,s0,s2
    80000572:	94ca                	add	s1,s1,s2
    80000574:	954a                	add	a0,a0,s2
    80000576:	95ca                	add	a1,a1,s2
    80000578:	964a                	add	a2,a2,s2
    8000057a:	96ca                	add	a3,a3,s2
    8000057c:	974a                	add	a4,a4,s2
    8000057e:	97ca                	add	a5,a5,s2
    80000580:	944a                	add	s0,s0,s2
    80000582:	94ca                	add	s1,s1,s2
    80000584:	954a                	add	a0,a0,s2
    80000586:	95ca                	add	a1,a1,s2
    80000588:	964a                	add	a2,a2,s2
    8000058a:	96ca                	add	a3,a3,s2
    8000058c:	974a                	add	a4,a4,s2
    8000058e:	97ca                	add	a5,a5,s2
    80000590:	944a                	add	s0,s0,s2
    80000592:	94ca                	add	s1,s1,s2
    80000594:	954a                	add	a0,a0,s2
    80000596:	95ca                	add	a1,a1,s2
    80000598:	964a                	add	a2,a2,s2
    8000059a:	96ca                	add	a3,a3,s2
    8000059c:	974a                	add	a4,a4,s2
    8000059e:	97ca                	add	a5,a5,s2
    800005a0:	944a                	add	s0,s0,s2
    800005a2:	94ca                	add	s1,s1,s2
    800005a4:	954a                	add	a0,a0,s2
    800005a6:	95ca                	add	a1,a1,s2
    800005a8:	964a                	add	a2,a2,s2
    800005aa:	96ca                	add	a3,a3,s2
    800005ac:	974a                	add	a4,a4,s2
    800005ae:	97ca                	add	a5,a5,s2
    800005b0:	944a                	add	s0,s0,s2
    800005b2:	94ca                	add	s1,s1,s2
    800005b4:	954a                	add	a0,a0,s2
    800005b6:	95ca                	add	a1,a1,s2
    800005b8:	964a                	add	a2,a2,s2
    800005ba:	96ca                	add	a3,a3,s2
    800005bc:	974a                	add	a4,a4,s2
    800005be:	97ca                	add	a5,a5,s2
    800005c0:	944a                	add	s0,s0,s2
    800005c2:	94ca                	add	s1,s1,s2
    800005c4:	954a                	add	a0,a0,s2
    800005c6:	95ca                	add	a1,a1,s2
    800005c8:	964a                	add	a2,a2,s2
    800005ca:	96ca                	add	a3,a3,s2
    800005cc:	974a                	add	a4,a4,s2
    800005ce:	97ca                	add	a5,a5,s2
    800005d0:	944a                	add	s0,s0,s2
    800005d2:	94ca                	add	s1,s1,s2
    800005d4:	954a                	add	a0,a0,s2
    800005d6:	95ca                	add	a1,a1,s2
    800005d8:	964a                	add	a2,a2,s2
    800005da:	96ca                	add	a3,a3,s2
    800005dc:	974a                	add	a4,a4,s2
    800005de:	97ca                	add	a5,a5,s2
    800005e0:	944a                	add	s0,s0,s2
    800005e2:	94ca                	add	s1,s1,s2
    800005e4:	954a                	add	a0,a0,s2
    800005e6:	95ca                	add	a1,a1,s2
    800005e8:	964a                	add	a2,a2,s2
    800005ea:	96ca                	add	a3,a3,s2
    800005ec:	974a                	add	a4,a4,s2
    800005ee:	97ca                	add	a5,a5,s2
    800005f0:	944a                	add	s0,s0,s2
    800005f2:	94ca                	add	s1,s1,s2
    800005f4:	954a                	add	a0,a0,s2
    800005f6:	95ca                	add	a1,a1,s2
    800005f8:	964a                	add	a2,a2,s2
    800005fa:	96ca                	add	a3,a3,s2
    800005fc:	974a                	add	a4,a4,s2
    800005fe:	97ca                	add	a5,a5,s2
    80000600:	944a                	add	s0,s0,s2
    80000602:	94ca                	add	s1,s1,s2
    80000604:	954a                	add	a0,a0,s2
    80000606:	95ca                	add	a1,a1,s2
    80000608:	964a                	add	a2,a2,s2
    8000060a:	96ca                	add	a3,a3,s2
    8000060c:	974a                	add	a4,a4,s2
    8000060e:	97ca                	add	a5,a5,s2
    80000610:	944a                	add	s0,s0,s2
    80000612:	94ca                	add	s1,s1,s2
    80000614:	954a                	add	a0,a0,s2
    80000616:	95ca                	add	a1,a1,s2
    80000618:	964a                	add	a2,a2,s2
    8000061a:	96ca                	add	a3,a3,s2
    8000061c:	974a                	add	a4,a4,s2
    8000061e:	97ca                	add	a5,a5,s2
    80000620:	944a                	add	s0,s0,s2
    80000622:	94ca                	add	s1,s1,s2
    80000624:	954a                	add	a0,a0,s2
    80000626:	95ca                	add	a1,a1,s2
    80000628:	964a                	add	a2,a2,s2
    8000062a:	96ca                	add	a3,a3,s2
    8000062c:	974a                	add	a4,a4,s2
    8000062e:	97ca                	add	a5,a5,s2
    80000630:	944a                	add	s0,s0,s2
    80000632:	94ca                	add	s1,s1,s2
    80000634:	954a                	add	a0,a0,s2
    80000636:	95ca                	add	a1,a1,s2
    80000638:	964a                	add	a2,a2,s2
    8000063a:	96ca                	add	a3,a3,s2
    8000063c:	974a                	add	a4,a4,s2
    8000063e:	97ca                	add	a5,a5,s2
    80000640:	944a                	add	s0,s0,s2
    80000642:	94ca                	add	s1,s1,s2
    80000644:	954a                	add	a0,a0,s2
    80000646:	95ca                	add	a1,a1,s2
    80000648:	964a                	add	a2,a2,s2
    8000064a:	96ca                	add	a3,a3,s2
    8000064c:	974a                	add	a4,a4,s2
    8000064e:	97ca                	add	a5,a5,s2
    80000650:	944a                	add	s0,s0,s2
    80000652:	94ca                	add	s1,s1,s2
    80000654:	954a                	add	a0,a0,s2
    80000656:	95ca                	add	a1,a1,s2
    80000658:	964a                	add	a2,a2,s2
    8000065a:	96ca                	add	a3,a3,s2
    8000065c:	974a                	add	a4,a4,s2
    8000065e:	97ca                	add	a5,a5,s2
    80000660:	944a                	add	s0,s0,s2
    80000662:	94ca                	add	s1,s1,s2
    80000664:	954a                	add	a0,a0,s2
    80000666:	95ca                	add	a1,a1,s2
    80000668:	964a                	add	a2,a2,s2
    8000066a:	96ca                	add	a3,a3,s2
    8000066c:	974a                	add	a4,a4,s2
    8000066e:	97ca                	add	a5,a5,s2
    80000670:	944a                	add	s0,s0,s2
    80000672:	94ca                	add	s1,s1,s2
    80000674:	954a                	add	a0,a0,s2
    80000676:	95ca                	add	a1,a1,s2
    80000678:	964a                	add	a2,a2,s2
    8000067a:	96ca                	add	a3,a3,s2
    8000067c:	974a                	add	a4,a4,s2
    8000067e:	97ca                	add	a5,a5,s2
    80000680:	944a                	add	s0,s0,s2
    80000682:	94ca                	add	s1,s1,s2
    80000684:	954a                	add	a0,a0,s2
    80000686:	95ca                	add	a1,a1,s2
    80000688:	964a                	add	a2,a2,s2
    8000068a:	96ca                	add	a3,a3,s2
    8000068c:	974a                	add	a4,a4,s2
    8000068e:	97ca                	add	a5,a5,s2
    80000690:	944a                	add	s0,s0,s2
    80000692:	94ca                	add	s1,s1,s2
    80000694:	954a                	add	a0,a0,s2
    80000696:	95ca                	add	a1,a1,s2
    80000698:	964a                	add	a2,a2,s2
    8000069a:	96ca                	add	a3,a3,s2
    8000069c:	974a                	add	a4,a4,s2
    8000069e:	97ca                	add	a5,a5,s2
    800006a0:	944a                	add	s0,s0,s2
    800006a2:	94ca                	add	s1,s1,s2
    800006a4:	954a                	add	a0,a0,s2
    800006a6:	95ca                	add	a1,a1,s2
    800006a8:	964a                	add	a2,a2,s2
    800006aa:	96ca                	add	a3,a3,s2
    800006ac:	974a                	add	a4,a4,s2
    800006ae:	97ca                	add	a5,a5,s2
    800006b0:	944a                	add	s0,s0,s2
    800006b2:	94ca                	add	s1,s1,s2
    800006b4:	954a                	add	a0,a0,s2
    800006b6:	95ca                	add	a1,a1,s2
    800006b8:	964a                	add	a2,a2,s2
    800006ba:	96ca                	add	a3,a3,s2
    800006bc:	974a                	add	a4,a4,s2
    800006be:	97ca                	add	a5,a5,s2
    800006c0:	944a                	add	s0,s0,s2
    800006c2:	94ca                	add	s1,s1,s2
    800006c4:	954a                	add	a0,a0,s2
    800006c6:	95ca                	add	a1,a1,s2
    800006c8:	964a                	add	a2,a2,s2
    800006ca:	96ca                	add	a3,a3,s2
    800006cc:	974a                	add	a4,a4,s2
    800006ce:	97ca                	add	a5,a5,s2
    800006d0:	944a                	add	s0,s0,s2
    800006d2:	94ca                	add	s1,s1,s2
    800006d4:	954a                	add	a0,a0,s2
    800006d6:	95ca                	add	a1,a1,s2
    800006d8:	964a                	add	a2,a2,s2
    800006da:	96ca                	add	a3,a3,s2
    800006dc:	974a                	add	a4,a4,s2
    800006de:	97ca                	add	a5,a5,s2
    800006e0:	944a                	add	s0,s0,s2
    800006e2:	94ca                	add	s1,s1,s2
    800006e4:	954a                	add	a0,a0,s2
    800006e6:	95ca                	add	a1,a1,s2
    800006e8:	964a                	add	a2,a2,s2
    800006ea:	96ca                	add	a3,a3,s2
    800006ec:	974a                	add	a4,a4,s2
    800006ee:	97ca                	add	a5,a5,s2
    800006f0:	944a                	add	s0,s0,s2
    800006f2:	94ca                	add	s1,s1,s2
    800006f4:	954a                	add	a0,a0,s2
    800006f6:	95ca                	add	a1,a1,s2
    800006f8:	964a                	add	a2,a2,s2
    800006fa:	96ca                	add	a3,a3,s2
    800006fc:	974a                	add	a4,a4,s2
    800006fe:	97ca                	add	a5,a5,s2
    80000700:	944a                	add	s0,s0,s2
    80000702:	94ca                	add	s1,s1,s2
    80000704:	954a                	add	a0,a0,s2
    80000706:	95ca                	add	a1,a1,s2
    80000708:	964a                	add	a2,a2,s2
    8000070a:	96ca                	add	a3,a3,s2
    8000070c:	974a                	add	a4,a4,s2
    8000070e:	97ca                	add	a5,a5,s2
    80000710:	944a                	add	s0,s0,s2
    80000712:	94ca                	add	s1,s1,s2
    80000714:	954a                	add	a0,a0,s2
    80000716:	95ca                	add	a1,a1,s2
    80000718:	964a                	add	a2,a2,s2
    8000071a:	96ca                	add	a3,a3,s2
    8000071c:	974a                	add	a4,a4,s2
    8000071e:	97ca                	add	a5,a5,s2
    80000720:	944a                	add	s0,s0,s2
    80000722:	94ca                	add	s1,s1,s2
    80000724:	954a                	add	a0,a0,s2
    80000726:	95ca                	add	a1,a1,s2
    80000728:	964a                	add	a2,a2,s2
    8000072a:	96ca                	add	a3,a3,s2
    8000072c:	974a                	add	a4,a4,s2
    8000072e:	97ca                	add	a5,a5,s2
    80000730:	944a                	add	s0,s0,s2
    80000732:	94ca                	add	s1,s1,s2
    80000734:	954a                	add	a0,a0,s2
    80000736:	95ca                	add	a1,a1,s2
    80000738:	964a                	add	a2,a2,s2
    8000073a:	96ca                	add	a3,a3,s2
    8000073c:	974a                	add	a4,a4,s2
    8000073e:	97ca                	add	a5,a5,s2
    80000740:	944a                	add	s0,s0,s2
    80000742:	94ca                	add	s1,s1,s2
    80000744:	954a                	add	a0,a0,s2
    80000746:	95ca                	add	a1,a1,s2
    80000748:	964a                	add	a2,a2,s2
    8000074a:	96ca                	add	a3,a3,s2
    8000074c:	974a                	add	a4,a4,s2
    8000074e:	97ca                	add	a5,a5,s2
    80000750:	944a                	add	s0,s0,s2
    80000752:	94ca                	add	s1,s1,s2
    80000754:	954a                	add	a0,a0,s2
    80000756:	95ca                	add	a1,a1,s2
    80000758:	964a                	add	a2,a2,s2
    8000075a:	96ca                	add	a3,a3,s2
    8000075c:	974a                	add	a4,a4,s2
    8000075e:	97ca                	add	a5,a5,s2
    80000760:	944a                	add	s0,s0,s2
    80000762:	94ca                	add	s1,s1,s2
    80000764:	954a                	add	a0,a0,s2
    80000766:	95ca                	add	a1,a1,s2
    80000768:	964a                	add	a2,a2,s2
    8000076a:	96ca                	add	a3,a3,s2
    8000076c:	974a                	add	a4,a4,s2
    8000076e:	97ca                	add	a5,a5,s2
    80000770:	944a                	add	s0,s0,s2
    80000772:	94ca                	add	s1,s1,s2
    80000774:	954a                	add	a0,a0,s2
    80000776:	95ca                	add	a1,a1,s2
    80000778:	964a                	add	a2,a2,s2
    8000077a:	96ca                	add	a3,a3,s2
    8000077c:	974a                	add	a4,a4,s2
    8000077e:	97ca                	add	a5,a5,s2
    80000780:	944a                	add	s0,s0,s2
    80000782:	94ca                	add	s1,s1,s2
    80000784:	954a                	add	a0,a0,s2
    80000786:	95ca                	add	a1,a1,s2
    80000788:	964a                	add	a2,a2,s2
    8000078a:	96ca                	add	a3,a3,s2
    8000078c:	974a                	add	a4,a4,s2
    8000078e:	97ca                	add	a5,a5,s2
    80000790:	944a                	add	s0,s0,s2
    80000792:	94ca                	add	s1,s1,s2
    80000794:	954a                	add	a0,a0,s2
    80000796:	95ca                	add	a1,a1,s2
    80000798:	964a                	add	a2,a2,s2
    8000079a:	96ca                	add	a3,a3,s2
    8000079c:	974a                	add	a4,a4,s2
    8000079e:	97ca                	add	a5,a5,s2
    800007a0:	944a                	add	s0,s0,s2
    800007a2:	94ca                	add	s1,s1,s2
    800007a4:	954a                	add	a0,a0,s2
    800007a6:	95ca                	add	a1,a1,s2
    800007a8:	964a                	add	a2,a2,s2
    800007aa:	96ca                	add	a3,a3,s2
    800007ac:	974a                	add	a4,a4,s2
    800007ae:	97ca                	add	a5,a5,s2
    800007b0:	944a                	add	s0,s0,s2
    800007b2:	94ca                	add	s1,s1,s2
    800007b4:	954a                	add	a0,a0,s2
    800007b6:	95ca                	add	a1,a1,s2
    800007b8:	964a                	add	a2,a2,s2
    800007ba:	96ca                	add	a3,a3,s2
    800007bc:	974a                	add	a4,a4,s2
    800007be:	97ca                	add	a5,a5,s2
    800007c0:	944a                	add	s0,s0,s2
    800007c2:	94ca                	add	s1,s1,s2
    800007c4:	954a                	add	a0,a0,s2
    800007c6:	95ca                	add	a1,a1,s2
    800007c8:	964a                	add	a2,a2,s2
    800007ca:	96ca                	add	a3,a3,s2
    800007cc:	974a                	add	a4,a4,s2
    800007ce:	97ca                	add	a5,a5,s2
    800007d0:	944a                	add	s0,s0,s2
    800007d2:	94ca                	add	s1,s1,s2
    800007d4:	954a                	add	a0,a0,s2
    800007d6:	95ca                	add	a1,a1,s2
    800007d8:	964a                	add	a2,a2,s2
    800007da:	96ca                	add	a3,a3,s2
    800007dc:	974a                	add	a4,a4,s2
    800007de:	97ca                	add	a5,a5,s2
    800007e0:	944a                	add	s0,s0,s2
    800007e2:	94ca                	add	s1,s1,s2
    800007e4:	954a                	add	a0,a0,s2
    800007e6:	95ca                	add	a1,a1,s2
    800007e8:	964a                	add	a2,a2,s2
    800007ea:	96ca                	add	a3,a3,s2
    800007ec:	974a                	add	a4,a4,s2
    800007ee:	97ca                	add	a5,a5,s2
    800007f0:	944a                	add	s0,s0,s2
    800007f2:	94ca                	add	s1,s1,s2
    800007f4:	954a                	add	a0,a0,s2
    800007f6:	95ca                	add	a1,a1,s2
    800007f8:	964a                	add	a2,a2,s2
    800007fa:	96ca                	add	a3,a3,s2
    800007fc:	974a                	add	a4,a4,s2
    800007fe:	97ca                	add	a5,a5,s2
    80000800:	944a                	add	s0,s0,s2
    80000802:	94ca                	add	s1,s1,s2
    80000804:	954a                	add	a0,a0,s2
    80000806:	95ca                	add	a1,a1,s2
    80000808:	964a                	add	a2,a2,s2
    8000080a:	96ca                	add	a3,a3,s2
    8000080c:	974a                	add	a4,a4,s2
    8000080e:	97ca                	add	a5,a5,s2
    80000810:	944a                	add	s0,s0,s2
    80000812:	94ca                	add	s1,s1,s2
    80000814:	954a                	add	a0,a0,s2
    80000816:	95ca                	add	a1,a1,s2
    80000818:	964a                	add	a2,a2,s2
    8000081a:	96ca                	add	a3,a3,s2
    8000081c:	974a                	add	a4,a4,s2
    8000081e:	97ca                	add	a5,a5,s2
    80000820:	944a                	add	s0,s0,s2
    80000822:	94ca                	add	s1,s1,s2
    80000824:	954a                	add	a0,a0,s2
    80000826:	95ca                	add	a1,a1,s2
    80000828:	964a                	add	a2,a2,s2
    8000082a:	96ca                	add	a3,a3,s2
    8000082c:	974a                	add	a4,a4,s2
    8000082e:	97ca                	add	a5,a5,s2
    80000830:	944a                	add	s0,s0,s2
    80000832:	94ca                	add	s1,s1,s2
    80000834:	954a                	add	a0,a0,s2
    80000836:	95ca                	add	a1,a1,s2
    80000838:	964a                	add	a2,a2,s2
    8000083a:	96ca                	add	a3,a3,s2
    8000083c:	974a                	add	a4,a4,s2
    8000083e:	97ca                	add	a5,a5,s2
    80000840:	944a                	add	s0,s0,s2
    80000842:	94ca                	add	s1,s1,s2
    80000844:	954a                	add	a0,a0,s2
    80000846:	95ca                	add	a1,a1,s2
    80000848:	964a                	add	a2,a2,s2
    8000084a:	96ca                	add	a3,a3,s2
    8000084c:	974a                	add	a4,a4,s2
    8000084e:	97ca                	add	a5,a5,s2
    80000850:	944a                	add	s0,s0,s2
    80000852:	94ca                	add	s1,s1,s2
    80000854:	954a                	add	a0,a0,s2
    80000856:	95ca                	add	a1,a1,s2
    80000858:	964a                	add	a2,a2,s2
    8000085a:	96ca                	add	a3,a3,s2
    8000085c:	974a                	add	a4,a4,s2
    8000085e:	97ca                	add	a5,a5,s2
    80000860:	944a                	add	s0,s0,s2
    80000862:	94ca                	add	s1,s1,s2
    80000864:	954a                	add	a0,a0,s2
    80000866:	95ca                	add	a1,a1,s2
    80000868:	964a                	add	a2,a2,s2
    8000086a:	96ca                	add	a3,a3,s2
    8000086c:	974a                	add	a4,a4,s2
    8000086e:	97ca                	add	a5,a5,s2
    80000870:	944a                	add	s0,s0,s2
    80000872:	94ca                	add	s1,s1,s2
    80000874:	954a                	add	a0,a0,s2
    80000876:	95ca                	add	a1,a1,s2
    80000878:	964a                	add	a2,a2,s2
    8000087a:	96ca                	add	a3,a3,s2
    8000087c:	974a                	add	a4,a4,s2
    8000087e:	97ca                	add	a5,a5,s2
    80000880:	944a                	add	s0,s0,s2
    80000882:	94ca                	add	s1,s1,s2
    80000884:	954a                	add	a0,a0,s2
    80000886:	95ca                	add	a1,a1,s2
    80000888:	964a                	add	a2,a2,s2
    8000088a:	96ca                	add	a3,a3,s2
    8000088c:	974a                	add	a4,a4,s2
    8000088e:	97ca                	add	a5,a5,s2
    80000890:	944a                	add	s0,s0,s2
    80000892:	94ca                	add	s1,s1,s2
    80000894:	954a                	add	a0,a0,s2
    80000896:	95ca                	add	a1,a1,s2
    80000898:	964a                	add	a2,a2,s2
    8000089a:	96ca                	add	a3,a3,s2
    8000089c:	974a                	add	a4,a4,s2
    8000089e:	97ca                	add	a5,a5,s2
    800008a0:	944a                	add	s0,s0,s2
    800008a2:	94ca                	add	s1,s1,s2
    800008a4:	954a                	add	a0,a0,s2
    800008a6:	95ca                	add	a1,a1,s2
    800008a8:	964a                	add	a2,a2,s2
    800008aa:	96ca                	add	a3,a3,s2
    800008ac:	974a                	add	a4,a4,s2
    800008ae:	97ca                	add	a5,a5,s2
    800008b0:	944a                	add	s0,s0,s2
    800008b2:	94ca                	add	s1,s1,s2
    800008b4:	954a                	add	a0,a0,s2
    800008b6:	95ca                	add	a1,a1,s2
    800008b8:	964a                	add	a2,a2,s2
    800008ba:	96ca                	add	a3,a3,s2
    800008bc:	974a                	add	a4,a4,s2
    800008be:	97ca                	add	a5,a5,s2
    800008c0:	944a                	add	s0,s0,s2
    800008c2:	94ca                	add	s1,s1,s2
    800008c4:	954a                	add	a0,a0,s2
    800008c6:	95ca                	add	a1,a1,s2
    800008c8:	964a                	add	a2,a2,s2
    800008ca:	96ca                	add	a3,a3,s2
    800008cc:	974a                	add	a4,a4,s2
    800008ce:	97ca                	add	a5,a5,s2
    800008d0:	944a                	add	s0,s0,s2
    800008d2:	94ca                	add	s1,s1,s2
    800008d4:	954a                	add	a0,a0,s2
    800008d6:	95ca                	add	a1,a1,s2
    800008d8:	964a                	add	a2,a2,s2
    800008da:	96ca                	add	a3,a3,s2
    800008dc:	974a                	add	a4,a4,s2
    800008de:	97ca                	add	a5,a5,s2
    800008e0:	944a                	add	s0,s0,s2
    800008e2:	94ca                	add	s1,s1,s2
    800008e4:	954a                	add	a0,a0,s2
    800008e6:	95ca                	add	a1,a1,s2
    800008e8:	964a                	add	a2,a2,s2
    800008ea:	96ca                	add	a3,a3,s2
    800008ec:	974a                	add	a4,a4,s2
    800008ee:	97ca                	add	a5,a5,s2
    800008f0:	944a                	add	s0,s0,s2
    800008f2:	94ca                	add	s1,s1,s2
    800008f4:	954a                	add	a0,a0,s2
    800008f6:	95ca                	add	a1,a1,s2
    800008f8:	964a                	add	a2,a2,s2
    800008fa:	96ca                	add	a3,a3,s2
    800008fc:	974a                	add	a4,a4,s2
    800008fe:	97ca                	add	a5,a5,s2
    80000900:	944a                	add	s0,s0,s2
    80000902:	94ca                	add	s1,s1,s2
    80000904:	954a                	add	a0,a0,s2
    80000906:	95ca                	add	a1,a1,s2
    80000908:	964a                	add	a2,a2,s2
    8000090a:	96ca                	add	a3,a3,s2
    8000090c:	974a                	add	a4,a4,s2
    8000090e:	97ca                	add	a5,a5,s2
    80000910:	944a                	add	s0,s0,s2
    80000912:	94ca                	add	s1,s1,s2
    80000914:	954a                	add	a0,a0,s2
    80000916:	95ca                	add	a1,a1,s2
    80000918:	964a                	add	a2,a2,s2
    8000091a:	96ca                	add	a3,a3,s2
    8000091c:	974a                	add	a4,a4,s2
    8000091e:	97ca                	add	a5,a5,s2
    80000920:	944a                	add	s0,s0,s2
    80000922:	94ca                	add	s1,s1,s2
    80000924:	954a                	add	a0,a0,s2
    80000926:	95ca                	add	a1,a1,s2
    80000928:	964a                	add	a2,a2,s2
    8000092a:	96ca                	add	a3,a3,s2
    8000092c:	974a                	add	a4,a4,s2
    8000092e:	97ca                	add	a5,a5,s2
    80000930:	944a                	add	s0,s0,s2
    80000932:	94ca                	add	s1,s1,s2
    80000934:	954a                	add	a0,a0,s2
    80000936:	95ca                	add	a1,a1,s2
    80000938:	964a                	add	a2,a2,s2
    8000093a:	96ca                	add	a3,a3,s2
    8000093c:	974a                	add	a4,a4,s2
    8000093e:	97ca                	add	a5,a5,s2
    80000940:	187d                	addi	a6,a6,-1
    80000942:	9a081fe3          	bnez	a6,80000300 <aluwidth+0x100>
    80000946:	6462                	ld	s0,24(sp)
    80000948:	64c2                	ld	s1,16(sp)
    8000094a:	6922                	ld	s2,8(sp)
    8000094c:	6105                	addi	sp,sp,32
    8000094e:	8082                	ret

0000000080000950 <aluwidth_test>:
    80000950:	6505                	lui	a0,0x1
    80000952:	7179                	addi	sp,sp,-48
    80000954:	bb850513          	addi	a0,a0,-1096 # bb8 <i+0xb98>
    80000958:	f406                	sd	ra,40(sp)
    8000095a:	ac22                	fsd	fs0,24(sp)
    8000095c:	a826                	fsd	fs1,16(sp)
    8000095e:	a44a                	fsd	fs2,8(sp)
    80000960:	a04e                	fsd	fs3,0(sp)
    80000962:	22a504d3          	fmv.d	fs1,fa0
    80000966:	89bff0ef          	jal	80000200 <aluwidth>
    8000096a:	3d5020ef          	jal	8000353e <uptime>
    8000096e:	d2150453          	fcvt.d.wu	fs0,a0
    80000972:	6509                	lui	a0,0x2
    80000974:	71050513          	addi	a0,a0,1808 # 2710 <i+0x26f0>
    80000978:	00003797          	auipc	a5,0x3
    8000097c:	3b87b987          	fld	fs3,952(a5) # 80003d30 <am_keycode+0x218>
    80000980:	00003797          	auipc	a5,0x3
    80000984:	3b87b907          	fld	fs2,952(a5) # 80003d38 <am_keycode+0x220>
    80000988:	879ff0ef          	jal	80000200 <aluwidth>
    8000098c:	3b3020ef          	jal	8000353e <uptime>
    80000990:	d21507d3          	fcvt.d.wu	fa5,a0
    80000994:	13347453          	fmul.d	fs0,fs0,fs3
    80000998:	00003797          	auipc	a5,0x3
    8000099c:	3a87b707          	fld	fa4,936(a5) # 80003d40 <am_keycode+0x228>
    800009a0:	1337f7d3          	fmul.d	fa5,fa5,fs3
    800009a4:	70a2                	ld	ra,40(sp)
    800009a6:	2982                	fld	fs3,0(sp)
    800009a8:	00003517          	auipc	a0,0x3
    800009ac:	e5850513          	addi	a0,a0,-424 # 80003800 <__am_timer_read+0x92>
    800009b0:	1b247453          	fdiv.d	fs0,fs0,fs2
    800009b4:	1b27f7d3          	fdiv.d	fa5,fa5,fs2
    800009b8:	2922                	fld	fs2,8(sp)
    800009ba:	0a87f7d3          	fsub.d	fa5,fa5,fs0
    800009be:	2462                	fld	fs0,24(sp)
    800009c0:	1af777d3          	fdiv.d	fa5,fa4,fa5
    800009c4:	1a97f7d3          	fdiv.d	fa5,fa5,fs1
    800009c8:	24c2                	fld	fs1,16(sp)
    800009ca:	6145                	addi	sp,sp,48
    800009cc:	e20785d3          	fmv.x.d	a1,fa5
    800009d0:	33d0206f          	j	8000350c <printf_>

00000000800009d4 <nopwidth>:
    800009d4:	1141                	addi	sp,sp,-16
    800009d6:	e422                	sd	s0,8(sp)
    800009d8:	e026                	sd	s1,0(sp)
    800009da:	00000013          	nop
    800009de:	00000013          	nop
    800009e2:	00000013          	nop
    800009e6:	00000013          	nop
    800009ea:	00000013          	nop
    800009ee:	00000013          	nop
    800009f2:	00000013          	nop
    800009f6:	00000013          	nop
    800009fa:	00000013          	nop
    800009fe:	0001                	nop
    80000a00:	0001                	nop
    80000a02:	0001                	nop
    80000a04:	0001                	nop
    80000a06:	0001                	nop
    80000a08:	0001                	nop
    80000a0a:	0001                	nop
    80000a0c:	0001                	nop
    80000a0e:	0001                	nop
    80000a10:	0001                	nop
    80000a12:	0001                	nop
    80000a14:	0001                	nop
    80000a16:	0001                	nop
    80000a18:	0001                	nop
    80000a1a:	0001                	nop
    80000a1c:	0001                	nop
    80000a1e:	0001                	nop
    80000a20:	0001                	nop
    80000a22:	0001                	nop
    80000a24:	0001                	nop
    80000a26:	0001                	nop
    80000a28:	0001                	nop
    80000a2a:	0001                	nop
    80000a2c:	0001                	nop
    80000a2e:	0001                	nop
    80000a30:	0001                	nop
    80000a32:	0001                	nop
    80000a34:	0001                	nop
    80000a36:	0001                	nop
    80000a38:	0001                	nop
    80000a3a:	0001                	nop
    80000a3c:	0001                	nop
    80000a3e:	0001                	nop
    80000a40:	0001                	nop
    80000a42:	0001                	nop
    80000a44:	0001                	nop
    80000a46:	0001                	nop
    80000a48:	0001                	nop
    80000a4a:	0001                	nop
    80000a4c:	0001                	nop
    80000a4e:	0001                	nop
    80000a50:	0001                	nop
    80000a52:	0001                	nop
    80000a54:	0001                	nop
    80000a56:	0001                	nop
    80000a58:	0001                	nop
    80000a5a:	0001                	nop
    80000a5c:	0001                	nop
    80000a5e:	0001                	nop
    80000a60:	0001                	nop
    80000a62:	0001                	nop
    80000a64:	0001                	nop
    80000a66:	0001                	nop
    80000a68:	0001                	nop
    80000a6a:	0001                	nop
    80000a6c:	0001                	nop
    80000a6e:	0001                	nop
    80000a70:	0001                	nop
    80000a72:	0001                	nop
    80000a74:	0001                	nop
    80000a76:	0001                	nop
    80000a78:	0001                	nop
    80000a7a:	0001                	nop
    80000a7c:	0001                	nop
    80000a7e:	0001                	nop
    80000a80:	0001                	nop
    80000a82:	0001                	nop
    80000a84:	0001                	nop
    80000a86:	0001                	nop
    80000a88:	0001                	nop
    80000a8a:	0001                	nop
    80000a8c:	0001                	nop
    80000a8e:	0001                	nop
    80000a90:	0001                	nop
    80000a92:	0001                	nop
    80000a94:	0001                	nop
    80000a96:	0001                	nop
    80000a98:	0001                	nop
    80000a9a:	0001                	nop
    80000a9c:	0001                	nop
    80000a9e:	0001                	nop
    80000aa0:	0001                	nop
    80000aa2:	0001                	nop
    80000aa4:	0001                	nop
    80000aa6:	0001                	nop
    80000aa8:	0001                	nop
    80000aaa:	0001                	nop
    80000aac:	0001                	nop
    80000aae:	0001                	nop
    80000ab0:	0001                	nop
    80000ab2:	0001                	nop
    80000ab4:	0001                	nop
    80000ab6:	0001                	nop
    80000ab8:	0001                	nop
    80000aba:	0001                	nop
    80000abc:	0001                	nop
    80000abe:	0001                	nop
    80000ac0:	0001                	nop
    80000ac2:	0001                	nop
    80000ac4:	0001                	nop
    80000ac6:	0001                	nop
    80000ac8:	157d                	addi	a0,a0,-1
    80000aca:	f91d                	bnez	a0,80000a00 <nopwidth+0x2c>
    80000acc:	6422                	ld	s0,8(sp)
    80000ace:	6482                	ld	s1,0(sp)
    80000ad0:	0141                	addi	sp,sp,16
    80000ad2:	8082                	ret

0000000080000ad4 <nopwidth_test>:
    80000ad4:	6505                	lui	a0,0x1
    80000ad6:	7179                	addi	sp,sp,-48
    80000ad8:	bb850513          	addi	a0,a0,-1096 # bb8 <i+0xb98>
    80000adc:	f406                	sd	ra,40(sp)
    80000ade:	ac22                	fsd	fs0,24(sp)
    80000ae0:	a826                	fsd	fs1,16(sp)
    80000ae2:	a44a                	fsd	fs2,8(sp)
    80000ae4:	a04e                	fsd	fs3,0(sp)
    80000ae6:	22a504d3          	fmv.d	fs1,fa0
    80000aea:	eebff0ef          	jal	800009d4 <nopwidth>
    80000aee:	251020ef          	jal	8000353e <uptime>
    80000af2:	d2150453          	fcvt.d.wu	fs0,a0
    80000af6:	6509                	lui	a0,0x2
    80000af8:	71050513          	addi	a0,a0,1808 # 2710 <i+0x26f0>
    80000afc:	00003797          	auipc	a5,0x3
    80000b00:	2347b987          	fld	fs3,564(a5) # 80003d30 <am_keycode+0x218>
    80000b04:	00003797          	auipc	a5,0x3
    80000b08:	2347b907          	fld	fs2,564(a5) # 80003d38 <am_keycode+0x220>
    80000b0c:	ec9ff0ef          	jal	800009d4 <nopwidth>
    80000b10:	22f020ef          	jal	8000353e <uptime>
    80000b14:	d21507d3          	fcvt.d.wu	fa5,a0
    80000b18:	13347453          	fmul.d	fs0,fs0,fs3
    80000b1c:	00003797          	auipc	a5,0x3
    80000b20:	22c7b707          	fld	fa4,556(a5) # 80003d48 <am_keycode+0x230>
    80000b24:	1337f7d3          	fmul.d	fa5,fa5,fs3
    80000b28:	70a2                	ld	ra,40(sp)
    80000b2a:	2982                	fld	fs3,0(sp)
    80000b2c:	00003517          	auipc	a0,0x3
    80000b30:	ce450513          	addi	a0,a0,-796 # 80003810 <__am_timer_read+0xa2>
    80000b34:	1b247453          	fdiv.d	fs0,fs0,fs2
    80000b38:	1b27f7d3          	fdiv.d	fa5,fa5,fs2
    80000b3c:	2922                	fld	fs2,8(sp)
    80000b3e:	0a87f7d3          	fsub.d	fa5,fa5,fs0
    80000b42:	2462                	fld	fs0,24(sp)
    80000b44:	1af777d3          	fdiv.d	fa5,fa4,fa5
    80000b48:	1a97f7d3          	fdiv.d	fa5,fa5,fs1
    80000b4c:	24c2                	fld	fs1,16(sp)
    80000b4e:	6145                	addi	sp,sp,48
    80000b50:	e20785d3          	fmv.x.d	a1,fa5
    80000b54:	1b90206f          	j	8000350c <printf_>

0000000080000b58 <brwidth>:
    80000b58:	1141                	addi	sp,sp,-16
    80000b5a:	e406                	sd	ra,8(sp)
    80000b5c:	00000013          	nop
    80000b60:	0085                	addi	ra,ra,1
    80000b62:	fe008fe3          	beqz	ra,80000b60 <brwidth+0x8>
    80000b66:	fe008de3          	beqz	ra,80000b60 <brwidth+0x8>
    80000b6a:	fe008be3          	beqz	ra,80000b60 <brwidth+0x8>
    80000b6e:	fe0089e3          	beqz	ra,80000b60 <brwidth+0x8>
    80000b72:	fe0087e3          	beqz	ra,80000b60 <brwidth+0x8>
    80000b76:	fe0085e3          	beqz	ra,80000b60 <brwidth+0x8>
    80000b7a:	fe0083e3          	beqz	ra,80000b60 <brwidth+0x8>
    80000b7e:	fe0081e3          	beqz	ra,80000b60 <brwidth+0x8>
    80000b82:	fc008fe3          	beqz	ra,80000b60 <brwidth+0x8>
    80000b86:	fc008de3          	beqz	ra,80000b60 <brwidth+0x8>
    80000b8a:	fc008be3          	beqz	ra,80000b60 <brwidth+0x8>
    80000b8e:	fc0089e3          	beqz	ra,80000b60 <brwidth+0x8>
    80000b92:	fc0087e3          	beqz	ra,80000b60 <brwidth+0x8>
    80000b96:	fc0085e3          	beqz	ra,80000b60 <brwidth+0x8>
    80000b9a:	fc0083e3          	beqz	ra,80000b60 <brwidth+0x8>
    80000b9e:	fc0081e3          	beqz	ra,80000b60 <brwidth+0x8>
    80000ba2:	fa008fe3          	beqz	ra,80000b60 <brwidth+0x8>
    80000ba6:	fa008de3          	beqz	ra,80000b60 <brwidth+0x8>
    80000baa:	fa008be3          	beqz	ra,80000b60 <brwidth+0x8>
    80000bae:	fa0089e3          	beqz	ra,80000b60 <brwidth+0x8>
    80000bb2:	fa0087e3          	beqz	ra,80000b60 <brwidth+0x8>
    80000bb6:	fa0085e3          	beqz	ra,80000b60 <brwidth+0x8>
    80000bba:	fa0083e3          	beqz	ra,80000b60 <brwidth+0x8>
    80000bbe:	fa0081e3          	beqz	ra,80000b60 <brwidth+0x8>
    80000bc2:	f8008fe3          	beqz	ra,80000b60 <brwidth+0x8>
    80000bc6:	f8008de3          	beqz	ra,80000b60 <brwidth+0x8>
    80000bca:	f8008be3          	beqz	ra,80000b60 <brwidth+0x8>
    80000bce:	f80089e3          	beqz	ra,80000b60 <brwidth+0x8>
    80000bd2:	f80087e3          	beqz	ra,80000b60 <brwidth+0x8>
    80000bd6:	f80085e3          	beqz	ra,80000b60 <brwidth+0x8>
    80000bda:	f80083e3          	beqz	ra,80000b60 <brwidth+0x8>
    80000bde:	f80081e3          	beqz	ra,80000b60 <brwidth+0x8>
    80000be2:	f6008fe3          	beqz	ra,80000b60 <brwidth+0x8>
    80000be6:	f6008de3          	beqz	ra,80000b60 <brwidth+0x8>
    80000bea:	f6008be3          	beqz	ra,80000b60 <brwidth+0x8>
    80000bee:	f60089e3          	beqz	ra,80000b60 <brwidth+0x8>
    80000bf2:	f60087e3          	beqz	ra,80000b60 <brwidth+0x8>
    80000bf6:	f60085e3          	beqz	ra,80000b60 <brwidth+0x8>
    80000bfa:	f60083e3          	beqz	ra,80000b60 <brwidth+0x8>
    80000bfe:	f60081e3          	beqz	ra,80000b60 <brwidth+0x8>
    80000c02:	f4008fe3          	beqz	ra,80000b60 <brwidth+0x8>
    80000c06:	f4008de3          	beqz	ra,80000b60 <brwidth+0x8>
    80000c0a:	f4008be3          	beqz	ra,80000b60 <brwidth+0x8>
    80000c0e:	f40089e3          	beqz	ra,80000b60 <brwidth+0x8>
    80000c12:	f40087e3          	beqz	ra,80000b60 <brwidth+0x8>
    80000c16:	f40085e3          	beqz	ra,80000b60 <brwidth+0x8>
    80000c1a:	f40083e3          	beqz	ra,80000b60 <brwidth+0x8>
    80000c1e:	f40081e3          	beqz	ra,80000b60 <brwidth+0x8>
    80000c22:	f2008fe3          	beqz	ra,80000b60 <brwidth+0x8>
    80000c26:	f2008de3          	beqz	ra,80000b60 <brwidth+0x8>
    80000c2a:	f2008be3          	beqz	ra,80000b60 <brwidth+0x8>
    80000c2e:	f20089e3          	beqz	ra,80000b60 <brwidth+0x8>
    80000c32:	f20087e3          	beqz	ra,80000b60 <brwidth+0x8>
    80000c36:	f20085e3          	beqz	ra,80000b60 <brwidth+0x8>
    80000c3a:	f20083e3          	beqz	ra,80000b60 <brwidth+0x8>
    80000c3e:	f20081e3          	beqz	ra,80000b60 <brwidth+0x8>
    80000c42:	f0008fe3          	beqz	ra,80000b60 <brwidth+0x8>
    80000c46:	f0008de3          	beqz	ra,80000b60 <brwidth+0x8>
    80000c4a:	f0008be3          	beqz	ra,80000b60 <brwidth+0x8>
    80000c4e:	f00089e3          	beqz	ra,80000b60 <brwidth+0x8>
    80000c52:	f00087e3          	beqz	ra,80000b60 <brwidth+0x8>
    80000c56:	f00085e3          	beqz	ra,80000b60 <brwidth+0x8>
    80000c5a:	f00083e3          	beqz	ra,80000b60 <brwidth+0x8>
    80000c5e:	f00081e3          	beqz	ra,80000b60 <brwidth+0x8>
    80000c62:	ee008fe3          	beqz	ra,80000b60 <brwidth+0x8>
    80000c66:	ee008de3          	beqz	ra,80000b60 <brwidth+0x8>
    80000c6a:	ee008be3          	beqz	ra,80000b60 <brwidth+0x8>
    80000c6e:	ee0089e3          	beqz	ra,80000b60 <brwidth+0x8>
    80000c72:	ee0087e3          	beqz	ra,80000b60 <brwidth+0x8>
    80000c76:	ee0085e3          	beqz	ra,80000b60 <brwidth+0x8>
    80000c7a:	ee0083e3          	beqz	ra,80000b60 <brwidth+0x8>
    80000c7e:	ee0081e3          	beqz	ra,80000b60 <brwidth+0x8>
    80000c82:	ec008fe3          	beqz	ra,80000b60 <brwidth+0x8>
    80000c86:	ec008de3          	beqz	ra,80000b60 <brwidth+0x8>
    80000c8a:	ec008be3          	beqz	ra,80000b60 <brwidth+0x8>
    80000c8e:	ec0089e3          	beqz	ra,80000b60 <brwidth+0x8>
    80000c92:	ec0087e3          	beqz	ra,80000b60 <brwidth+0x8>
    80000c96:	ec0085e3          	beqz	ra,80000b60 <brwidth+0x8>
    80000c9a:	ec0083e3          	beqz	ra,80000b60 <brwidth+0x8>
    80000c9e:	ec0081e3          	beqz	ra,80000b60 <brwidth+0x8>
    80000ca2:	ea008fe3          	beqz	ra,80000b60 <brwidth+0x8>
    80000ca6:	ea008de3          	beqz	ra,80000b60 <brwidth+0x8>
    80000caa:	ea008be3          	beqz	ra,80000b60 <brwidth+0x8>
    80000cae:	ea0089e3          	beqz	ra,80000b60 <brwidth+0x8>
    80000cb2:	ea0087e3          	beqz	ra,80000b60 <brwidth+0x8>
    80000cb6:	ea0085e3          	beqz	ra,80000b60 <brwidth+0x8>
    80000cba:	ea0083e3          	beqz	ra,80000b60 <brwidth+0x8>
    80000cbe:	ea0081e3          	beqz	ra,80000b60 <brwidth+0x8>
    80000cc2:	e8008fe3          	beqz	ra,80000b60 <brwidth+0x8>
    80000cc6:	e8008de3          	beqz	ra,80000b60 <brwidth+0x8>
    80000cca:	e8008be3          	beqz	ra,80000b60 <brwidth+0x8>
    80000cce:	e80089e3          	beqz	ra,80000b60 <brwidth+0x8>
    80000cd2:	e80087e3          	beqz	ra,80000b60 <brwidth+0x8>
    80000cd6:	e80085e3          	beqz	ra,80000b60 <brwidth+0x8>
    80000cda:	e80083e3          	beqz	ra,80000b60 <brwidth+0x8>
    80000cde:	e80081e3          	beqz	ra,80000b60 <brwidth+0x8>
    80000ce2:	e6008fe3          	beqz	ra,80000b60 <brwidth+0x8>
    80000ce6:	e6008de3          	beqz	ra,80000b60 <brwidth+0x8>
    80000cea:	e6008be3          	beqz	ra,80000b60 <brwidth+0x8>
    80000cee:	e60089e3          	beqz	ra,80000b60 <brwidth+0x8>
    80000cf2:	157d                	addi	a0,a0,-1
    80000cf4:	e60516e3          	bnez	a0,80000b60 <brwidth+0x8>
    80000cf8:	60a2                	ld	ra,8(sp)
    80000cfa:	0141                	addi	sp,sp,16
    80000cfc:	8082                	ret

0000000080000cfe <brwidth_test>:
    80000cfe:	6505                	lui	a0,0x1
    80000d00:	7179                	addi	sp,sp,-48
    80000d02:	bb850513          	addi	a0,a0,-1096 # bb8 <i+0xb98>
    80000d06:	f406                	sd	ra,40(sp)
    80000d08:	ac22                	fsd	fs0,24(sp)
    80000d0a:	a826                	fsd	fs1,16(sp)
    80000d0c:	a44a                	fsd	fs2,8(sp)
    80000d0e:	a04e                	fsd	fs3,0(sp)
    80000d10:	22a504d3          	fmv.d	fs1,fa0
    80000d14:	e45ff0ef          	jal	80000b58 <brwidth>
    80000d18:	027020ef          	jal	8000353e <uptime>
    80000d1c:	d2150453          	fcvt.d.wu	fs0,a0
    80000d20:	6509                	lui	a0,0x2
    80000d22:	71050513          	addi	a0,a0,1808 # 2710 <i+0x26f0>
    80000d26:	00003797          	auipc	a5,0x3
    80000d2a:	00a7b987          	fld	fs3,10(a5) # 80003d30 <am_keycode+0x218>
    80000d2e:	00003797          	auipc	a5,0x3
    80000d32:	00a7b907          	fld	fs2,10(a5) # 80003d38 <am_keycode+0x220>
    80000d36:	e23ff0ef          	jal	80000b58 <brwidth>
    80000d3a:	005020ef          	jal	8000353e <uptime>
    80000d3e:	d21507d3          	fcvt.d.wu	fa5,a0
    80000d42:	13347453          	fmul.d	fs0,fs0,fs3
    80000d46:	00003797          	auipc	a5,0x3
    80000d4a:	0027b707          	fld	fa4,2(a5) # 80003d48 <am_keycode+0x230>
    80000d4e:	1337f7d3          	fmul.d	fa5,fa5,fs3
    80000d52:	70a2                	ld	ra,40(sp)
    80000d54:	2982                	fld	fs3,0(sp)
    80000d56:	00003517          	auipc	a0,0x3
    80000d5a:	aca50513          	addi	a0,a0,-1334 # 80003820 <__am_timer_read+0xb2>
    80000d5e:	1b247453          	fdiv.d	fs0,fs0,fs2
    80000d62:	1b27f7d3          	fdiv.d	fa5,fa5,fs2
    80000d66:	2922                	fld	fs2,8(sp)
    80000d68:	0a87f7d3          	fsub.d	fa5,fa5,fs0
    80000d6c:	2462                	fld	fs0,24(sp)
    80000d6e:	1af777d3          	fdiv.d	fa5,fa4,fa5
    80000d72:	1a97f7d3          	fdiv.d	fa5,fa5,fs1
    80000d76:	24c2                	fld	fs1,16(sp)
    80000d78:	6145                	addi	sp,sp,48
    80000d7a:	e20785d3          	fmv.x.d	a1,fa5
    80000d7e:	78e0206f          	j	8000350c <printf_>

0000000080000d82 <fpuwidth>:
    80000d82:	1141                	addi	sp,sp,-16
    80000d84:	a422                	fsd	fs0,8(sp)
    80000d86:	a026                	fsd	fs1,0(sp)
    80000d88:	00000013          	nop
    80000d8c:	00000013          	nop
    80000d90:	00000013          	nop
    80000d94:	00000013          	nop
    80000d98:	00000013          	nop
    80000d9c:	00000013          	nop
    80000da0:	00000013          	nop
    80000da4:	00000013          	nop
    80000da8:	00000013          	nop
    80000dac:	00000013          	nop
    80000db0:	00000013          	nop
    80000db4:	00000013          	nop
    80000db8:	00000013          	nop
    80000dbc:	00000013          	nop
    80000dc0:	00000013          	nop
    80000dc4:	00000013          	nop
    80000dc8:	00000013          	nop
    80000dcc:	00000013          	nop
    80000dd0:	00000013          	nop
    80000dd4:	00000013          	nop
    80000dd8:	00000013          	nop
    80000ddc:	00000013          	nop
    80000de0:	00000013          	nop
    80000de4:	00000013          	nop
    80000de8:	00000013          	nop
    80000dec:	00000013          	nop
    80000df0:	00000013          	nop
    80000df4:	00000013          	nop
    80000df8:	00000013          	nop
    80000dfc:	00000013          	nop
    80000e00:	02107153          	fadd.d	ft2,ft0,ft1
    80000e04:	021071d3          	fadd.d	ft3,ft0,ft1
    80000e08:	02107253          	fadd.d	ft4,ft0,ft1
    80000e0c:	021072d3          	fadd.d	ft5,ft0,ft1
    80000e10:	02107353          	fadd.d	ft6,ft0,ft1
    80000e14:	021073d3          	fadd.d	ft7,ft0,ft1
    80000e18:	02107453          	fadd.d	fs0,ft0,ft1
    80000e1c:	021074d3          	fadd.d	fs1,ft0,ft1
    80000e20:	02107153          	fadd.d	ft2,ft0,ft1
    80000e24:	021071d3          	fadd.d	ft3,ft0,ft1
    80000e28:	02107253          	fadd.d	ft4,ft0,ft1
    80000e2c:	021072d3          	fadd.d	ft5,ft0,ft1
    80000e30:	02107353          	fadd.d	ft6,ft0,ft1
    80000e34:	021073d3          	fadd.d	ft7,ft0,ft1
    80000e38:	02107453          	fadd.d	fs0,ft0,ft1
    80000e3c:	021074d3          	fadd.d	fs1,ft0,ft1
    80000e40:	02107153          	fadd.d	ft2,ft0,ft1
    80000e44:	021071d3          	fadd.d	ft3,ft0,ft1
    80000e48:	02107253          	fadd.d	ft4,ft0,ft1
    80000e4c:	021072d3          	fadd.d	ft5,ft0,ft1
    80000e50:	02107353          	fadd.d	ft6,ft0,ft1
    80000e54:	021073d3          	fadd.d	ft7,ft0,ft1
    80000e58:	02107453          	fadd.d	fs0,ft0,ft1
    80000e5c:	021074d3          	fadd.d	fs1,ft0,ft1
    80000e60:	02107153          	fadd.d	ft2,ft0,ft1
    80000e64:	021071d3          	fadd.d	ft3,ft0,ft1
    80000e68:	02107253          	fadd.d	ft4,ft0,ft1
    80000e6c:	021072d3          	fadd.d	ft5,ft0,ft1
    80000e70:	02107353          	fadd.d	ft6,ft0,ft1
    80000e74:	021073d3          	fadd.d	ft7,ft0,ft1
    80000e78:	02107453          	fadd.d	fs0,ft0,ft1
    80000e7c:	021074d3          	fadd.d	fs1,ft0,ft1
    80000e80:	02107153          	fadd.d	ft2,ft0,ft1
    80000e84:	021071d3          	fadd.d	ft3,ft0,ft1
    80000e88:	02107253          	fadd.d	ft4,ft0,ft1
    80000e8c:	021072d3          	fadd.d	ft5,ft0,ft1
    80000e90:	02107353          	fadd.d	ft6,ft0,ft1
    80000e94:	021073d3          	fadd.d	ft7,ft0,ft1
    80000e98:	02107453          	fadd.d	fs0,ft0,ft1
    80000e9c:	021074d3          	fadd.d	fs1,ft0,ft1
    80000ea0:	02107153          	fadd.d	ft2,ft0,ft1
    80000ea4:	021071d3          	fadd.d	ft3,ft0,ft1
    80000ea8:	02107253          	fadd.d	ft4,ft0,ft1
    80000eac:	021072d3          	fadd.d	ft5,ft0,ft1
    80000eb0:	02107353          	fadd.d	ft6,ft0,ft1
    80000eb4:	021073d3          	fadd.d	ft7,ft0,ft1
    80000eb8:	02107453          	fadd.d	fs0,ft0,ft1
    80000ebc:	021074d3          	fadd.d	fs1,ft0,ft1
    80000ec0:	02107153          	fadd.d	ft2,ft0,ft1
    80000ec4:	021071d3          	fadd.d	ft3,ft0,ft1
    80000ec8:	02107253          	fadd.d	ft4,ft0,ft1
    80000ecc:	021072d3          	fadd.d	ft5,ft0,ft1
    80000ed0:	02107353          	fadd.d	ft6,ft0,ft1
    80000ed4:	021073d3          	fadd.d	ft7,ft0,ft1
    80000ed8:	02107453          	fadd.d	fs0,ft0,ft1
    80000edc:	021074d3          	fadd.d	fs1,ft0,ft1
    80000ee0:	02107153          	fadd.d	ft2,ft0,ft1
    80000ee4:	021071d3          	fadd.d	ft3,ft0,ft1
    80000ee8:	02107253          	fadd.d	ft4,ft0,ft1
    80000eec:	021072d3          	fadd.d	ft5,ft0,ft1
    80000ef0:	02107353          	fadd.d	ft6,ft0,ft1
    80000ef4:	021073d3          	fadd.d	ft7,ft0,ft1
    80000ef8:	02107453          	fadd.d	fs0,ft0,ft1
    80000efc:	021074d3          	fadd.d	fs1,ft0,ft1
    80000f00:	02107153          	fadd.d	ft2,ft0,ft1
    80000f04:	021071d3          	fadd.d	ft3,ft0,ft1
    80000f08:	02107253          	fadd.d	ft4,ft0,ft1
    80000f0c:	021072d3          	fadd.d	ft5,ft0,ft1
    80000f10:	02107353          	fadd.d	ft6,ft0,ft1
    80000f14:	021073d3          	fadd.d	ft7,ft0,ft1
    80000f18:	02107453          	fadd.d	fs0,ft0,ft1
    80000f1c:	021074d3          	fadd.d	fs1,ft0,ft1
    80000f20:	02107153          	fadd.d	ft2,ft0,ft1
    80000f24:	021071d3          	fadd.d	ft3,ft0,ft1
    80000f28:	02107253          	fadd.d	ft4,ft0,ft1
    80000f2c:	021072d3          	fadd.d	ft5,ft0,ft1
    80000f30:	02107353          	fadd.d	ft6,ft0,ft1
    80000f34:	021073d3          	fadd.d	ft7,ft0,ft1
    80000f38:	02107453          	fadd.d	fs0,ft0,ft1
    80000f3c:	021074d3          	fadd.d	fs1,ft0,ft1
    80000f40:	02107153          	fadd.d	ft2,ft0,ft1
    80000f44:	021071d3          	fadd.d	ft3,ft0,ft1
    80000f48:	02107253          	fadd.d	ft4,ft0,ft1
    80000f4c:	021072d3          	fadd.d	ft5,ft0,ft1
    80000f50:	02107353          	fadd.d	ft6,ft0,ft1
    80000f54:	021073d3          	fadd.d	ft7,ft0,ft1
    80000f58:	02107453          	fadd.d	fs0,ft0,ft1
    80000f5c:	021074d3          	fadd.d	fs1,ft0,ft1
    80000f60:	02107153          	fadd.d	ft2,ft0,ft1
    80000f64:	021071d3          	fadd.d	ft3,ft0,ft1
    80000f68:	02107253          	fadd.d	ft4,ft0,ft1
    80000f6c:	021072d3          	fadd.d	ft5,ft0,ft1
    80000f70:	02107353          	fadd.d	ft6,ft0,ft1
    80000f74:	021073d3          	fadd.d	ft7,ft0,ft1
    80000f78:	02107453          	fadd.d	fs0,ft0,ft1
    80000f7c:	021074d3          	fadd.d	fs1,ft0,ft1
    80000f80:	02107153          	fadd.d	ft2,ft0,ft1
    80000f84:	021071d3          	fadd.d	ft3,ft0,ft1
    80000f88:	02107253          	fadd.d	ft4,ft0,ft1
    80000f8c:	021072d3          	fadd.d	ft5,ft0,ft1
    80000f90:	02107353          	fadd.d	ft6,ft0,ft1
    80000f94:	021073d3          	fadd.d	ft7,ft0,ft1
    80000f98:	02107453          	fadd.d	fs0,ft0,ft1
    80000f9c:	021074d3          	fadd.d	fs1,ft0,ft1
    80000fa0:	02107153          	fadd.d	ft2,ft0,ft1
    80000fa4:	021071d3          	fadd.d	ft3,ft0,ft1
    80000fa8:	02107253          	fadd.d	ft4,ft0,ft1
    80000fac:	021072d3          	fadd.d	ft5,ft0,ft1
    80000fb0:	02107353          	fadd.d	ft6,ft0,ft1
    80000fb4:	021073d3          	fadd.d	ft7,ft0,ft1
    80000fb8:	02107453          	fadd.d	fs0,ft0,ft1
    80000fbc:	021074d3          	fadd.d	fs1,ft0,ft1
    80000fc0:	02107153          	fadd.d	ft2,ft0,ft1
    80000fc4:	021071d3          	fadd.d	ft3,ft0,ft1
    80000fc8:	02107253          	fadd.d	ft4,ft0,ft1
    80000fcc:	021072d3          	fadd.d	ft5,ft0,ft1
    80000fd0:	02107353          	fadd.d	ft6,ft0,ft1
    80000fd4:	021073d3          	fadd.d	ft7,ft0,ft1
    80000fd8:	02107453          	fadd.d	fs0,ft0,ft1
    80000fdc:	021074d3          	fadd.d	fs1,ft0,ft1
    80000fe0:	02107153          	fadd.d	ft2,ft0,ft1
    80000fe4:	021071d3          	fadd.d	ft3,ft0,ft1
    80000fe8:	02107253          	fadd.d	ft4,ft0,ft1
    80000fec:	021072d3          	fadd.d	ft5,ft0,ft1
    80000ff0:	02107353          	fadd.d	ft6,ft0,ft1
    80000ff4:	021073d3          	fadd.d	ft7,ft0,ft1
    80000ff8:	02107453          	fadd.d	fs0,ft0,ft1
    80000ffc:	021074d3          	fadd.d	fs1,ft0,ft1
    80001000:	02107153          	fadd.d	ft2,ft0,ft1
    80001004:	021071d3          	fadd.d	ft3,ft0,ft1
    80001008:	02107253          	fadd.d	ft4,ft0,ft1
    8000100c:	021072d3          	fadd.d	ft5,ft0,ft1
    80001010:	02107353          	fadd.d	ft6,ft0,ft1
    80001014:	021073d3          	fadd.d	ft7,ft0,ft1
    80001018:	02107453          	fadd.d	fs0,ft0,ft1
    8000101c:	021074d3          	fadd.d	fs1,ft0,ft1
    80001020:	02107153          	fadd.d	ft2,ft0,ft1
    80001024:	021071d3          	fadd.d	ft3,ft0,ft1
    80001028:	02107253          	fadd.d	ft4,ft0,ft1
    8000102c:	021072d3          	fadd.d	ft5,ft0,ft1
    80001030:	02107353          	fadd.d	ft6,ft0,ft1
    80001034:	021073d3          	fadd.d	ft7,ft0,ft1
    80001038:	02107453          	fadd.d	fs0,ft0,ft1
    8000103c:	021074d3          	fadd.d	fs1,ft0,ft1
    80001040:	02107153          	fadd.d	ft2,ft0,ft1
    80001044:	021071d3          	fadd.d	ft3,ft0,ft1
    80001048:	02107253          	fadd.d	ft4,ft0,ft1
    8000104c:	021072d3          	fadd.d	ft5,ft0,ft1
    80001050:	02107353          	fadd.d	ft6,ft0,ft1
    80001054:	021073d3          	fadd.d	ft7,ft0,ft1
    80001058:	02107453          	fadd.d	fs0,ft0,ft1
    8000105c:	021074d3          	fadd.d	fs1,ft0,ft1
    80001060:	02107153          	fadd.d	ft2,ft0,ft1
    80001064:	021071d3          	fadd.d	ft3,ft0,ft1
    80001068:	02107253          	fadd.d	ft4,ft0,ft1
    8000106c:	021072d3          	fadd.d	ft5,ft0,ft1
    80001070:	02107353          	fadd.d	ft6,ft0,ft1
    80001074:	021073d3          	fadd.d	ft7,ft0,ft1
    80001078:	02107453          	fadd.d	fs0,ft0,ft1
    8000107c:	021074d3          	fadd.d	fs1,ft0,ft1
    80001080:	02107153          	fadd.d	ft2,ft0,ft1
    80001084:	021071d3          	fadd.d	ft3,ft0,ft1
    80001088:	02107253          	fadd.d	ft4,ft0,ft1
    8000108c:	021072d3          	fadd.d	ft5,ft0,ft1
    80001090:	02107353          	fadd.d	ft6,ft0,ft1
    80001094:	021073d3          	fadd.d	ft7,ft0,ft1
    80001098:	02107453          	fadd.d	fs0,ft0,ft1
    8000109c:	021074d3          	fadd.d	fs1,ft0,ft1
    800010a0:	02107153          	fadd.d	ft2,ft0,ft1
    800010a4:	021071d3          	fadd.d	ft3,ft0,ft1
    800010a8:	02107253          	fadd.d	ft4,ft0,ft1
    800010ac:	021072d3          	fadd.d	ft5,ft0,ft1
    800010b0:	02107353          	fadd.d	ft6,ft0,ft1
    800010b4:	021073d3          	fadd.d	ft7,ft0,ft1
    800010b8:	02107453          	fadd.d	fs0,ft0,ft1
    800010bc:	021074d3          	fadd.d	fs1,ft0,ft1
    800010c0:	02107153          	fadd.d	ft2,ft0,ft1
    800010c4:	021071d3          	fadd.d	ft3,ft0,ft1
    800010c8:	02107253          	fadd.d	ft4,ft0,ft1
    800010cc:	021072d3          	fadd.d	ft5,ft0,ft1
    800010d0:	02107353          	fadd.d	ft6,ft0,ft1
    800010d4:	021073d3          	fadd.d	ft7,ft0,ft1
    800010d8:	02107453          	fadd.d	fs0,ft0,ft1
    800010dc:	021074d3          	fadd.d	fs1,ft0,ft1
    800010e0:	02107153          	fadd.d	ft2,ft0,ft1
    800010e4:	021071d3          	fadd.d	ft3,ft0,ft1
    800010e8:	02107253          	fadd.d	ft4,ft0,ft1
    800010ec:	021072d3          	fadd.d	ft5,ft0,ft1
    800010f0:	02107353          	fadd.d	ft6,ft0,ft1
    800010f4:	021073d3          	fadd.d	ft7,ft0,ft1
    800010f8:	02107453          	fadd.d	fs0,ft0,ft1
    800010fc:	021074d3          	fadd.d	fs1,ft0,ft1
    80001100:	02107153          	fadd.d	ft2,ft0,ft1
    80001104:	021071d3          	fadd.d	ft3,ft0,ft1
    80001108:	02107253          	fadd.d	ft4,ft0,ft1
    8000110c:	021072d3          	fadd.d	ft5,ft0,ft1
    80001110:	02107353          	fadd.d	ft6,ft0,ft1
    80001114:	021073d3          	fadd.d	ft7,ft0,ft1
    80001118:	02107453          	fadd.d	fs0,ft0,ft1
    8000111c:	021074d3          	fadd.d	fs1,ft0,ft1
    80001120:	02107153          	fadd.d	ft2,ft0,ft1
    80001124:	021071d3          	fadd.d	ft3,ft0,ft1
    80001128:	02107253          	fadd.d	ft4,ft0,ft1
    8000112c:	021072d3          	fadd.d	ft5,ft0,ft1
    80001130:	02107353          	fadd.d	ft6,ft0,ft1
    80001134:	021073d3          	fadd.d	ft7,ft0,ft1
    80001138:	02107453          	fadd.d	fs0,ft0,ft1
    8000113c:	021074d3          	fadd.d	fs1,ft0,ft1
    80001140:	02107153          	fadd.d	ft2,ft0,ft1
    80001144:	021071d3          	fadd.d	ft3,ft0,ft1
    80001148:	02107253          	fadd.d	ft4,ft0,ft1
    8000114c:	021072d3          	fadd.d	ft5,ft0,ft1
    80001150:	02107353          	fadd.d	ft6,ft0,ft1
    80001154:	021073d3          	fadd.d	ft7,ft0,ft1
    80001158:	02107453          	fadd.d	fs0,ft0,ft1
    8000115c:	021074d3          	fadd.d	fs1,ft0,ft1
    80001160:	02107153          	fadd.d	ft2,ft0,ft1
    80001164:	021071d3          	fadd.d	ft3,ft0,ft1
    80001168:	02107253          	fadd.d	ft4,ft0,ft1
    8000116c:	021072d3          	fadd.d	ft5,ft0,ft1
    80001170:	02107353          	fadd.d	ft6,ft0,ft1
    80001174:	021073d3          	fadd.d	ft7,ft0,ft1
    80001178:	02107453          	fadd.d	fs0,ft0,ft1
    8000117c:	021074d3          	fadd.d	fs1,ft0,ft1
    80001180:	02107153          	fadd.d	ft2,ft0,ft1
    80001184:	021071d3          	fadd.d	ft3,ft0,ft1
    80001188:	02107253          	fadd.d	ft4,ft0,ft1
    8000118c:	021072d3          	fadd.d	ft5,ft0,ft1
    80001190:	02107353          	fadd.d	ft6,ft0,ft1
    80001194:	021073d3          	fadd.d	ft7,ft0,ft1
    80001198:	02107453          	fadd.d	fs0,ft0,ft1
    8000119c:	021074d3          	fadd.d	fs1,ft0,ft1
    800011a0:	02107153          	fadd.d	ft2,ft0,ft1
    800011a4:	021071d3          	fadd.d	ft3,ft0,ft1
    800011a8:	02107253          	fadd.d	ft4,ft0,ft1
    800011ac:	021072d3          	fadd.d	ft5,ft0,ft1
    800011b0:	02107353          	fadd.d	ft6,ft0,ft1
    800011b4:	021073d3          	fadd.d	ft7,ft0,ft1
    800011b8:	02107453          	fadd.d	fs0,ft0,ft1
    800011bc:	021074d3          	fadd.d	fs1,ft0,ft1
    800011c0:	02107153          	fadd.d	ft2,ft0,ft1
    800011c4:	021071d3          	fadd.d	ft3,ft0,ft1
    800011c8:	02107253          	fadd.d	ft4,ft0,ft1
    800011cc:	021072d3          	fadd.d	ft5,ft0,ft1
    800011d0:	02107353          	fadd.d	ft6,ft0,ft1
    800011d4:	021073d3          	fadd.d	ft7,ft0,ft1
    800011d8:	02107453          	fadd.d	fs0,ft0,ft1
    800011dc:	021074d3          	fadd.d	fs1,ft0,ft1
    800011e0:	02107153          	fadd.d	ft2,ft0,ft1
    800011e4:	021071d3          	fadd.d	ft3,ft0,ft1
    800011e8:	02107253          	fadd.d	ft4,ft0,ft1
    800011ec:	021072d3          	fadd.d	ft5,ft0,ft1
    800011f0:	02107353          	fadd.d	ft6,ft0,ft1
    800011f4:	021073d3          	fadd.d	ft7,ft0,ft1
    800011f8:	02107453          	fadd.d	fs0,ft0,ft1
    800011fc:	021074d3          	fadd.d	fs1,ft0,ft1
    80001200:	02107153          	fadd.d	ft2,ft0,ft1
    80001204:	021071d3          	fadd.d	ft3,ft0,ft1
    80001208:	02107253          	fadd.d	ft4,ft0,ft1
    8000120c:	021072d3          	fadd.d	ft5,ft0,ft1
    80001210:	02107353          	fadd.d	ft6,ft0,ft1
    80001214:	021073d3          	fadd.d	ft7,ft0,ft1
    80001218:	02107453          	fadd.d	fs0,ft0,ft1
    8000121c:	021074d3          	fadd.d	fs1,ft0,ft1
    80001220:	02107153          	fadd.d	ft2,ft0,ft1
    80001224:	021071d3          	fadd.d	ft3,ft0,ft1
    80001228:	02107253          	fadd.d	ft4,ft0,ft1
    8000122c:	021072d3          	fadd.d	ft5,ft0,ft1
    80001230:	02107353          	fadd.d	ft6,ft0,ft1
    80001234:	021073d3          	fadd.d	ft7,ft0,ft1
    80001238:	02107453          	fadd.d	fs0,ft0,ft1
    8000123c:	021074d3          	fadd.d	fs1,ft0,ft1
    80001240:	02107153          	fadd.d	ft2,ft0,ft1
    80001244:	021071d3          	fadd.d	ft3,ft0,ft1
    80001248:	02107253          	fadd.d	ft4,ft0,ft1
    8000124c:	021072d3          	fadd.d	ft5,ft0,ft1
    80001250:	02107353          	fadd.d	ft6,ft0,ft1
    80001254:	021073d3          	fadd.d	ft7,ft0,ft1
    80001258:	02107453          	fadd.d	fs0,ft0,ft1
    8000125c:	021074d3          	fadd.d	fs1,ft0,ft1
    80001260:	02107153          	fadd.d	ft2,ft0,ft1
    80001264:	021071d3          	fadd.d	ft3,ft0,ft1
    80001268:	02107253          	fadd.d	ft4,ft0,ft1
    8000126c:	021072d3          	fadd.d	ft5,ft0,ft1
    80001270:	02107353          	fadd.d	ft6,ft0,ft1
    80001274:	021073d3          	fadd.d	ft7,ft0,ft1
    80001278:	02107453          	fadd.d	fs0,ft0,ft1
    8000127c:	021074d3          	fadd.d	fs1,ft0,ft1
    80001280:	02107153          	fadd.d	ft2,ft0,ft1
    80001284:	021071d3          	fadd.d	ft3,ft0,ft1
    80001288:	02107253          	fadd.d	ft4,ft0,ft1
    8000128c:	021072d3          	fadd.d	ft5,ft0,ft1
    80001290:	02107353          	fadd.d	ft6,ft0,ft1
    80001294:	021073d3          	fadd.d	ft7,ft0,ft1
    80001298:	02107453          	fadd.d	fs0,ft0,ft1
    8000129c:	021074d3          	fadd.d	fs1,ft0,ft1
    800012a0:	02107153          	fadd.d	ft2,ft0,ft1
    800012a4:	021071d3          	fadd.d	ft3,ft0,ft1
    800012a8:	02107253          	fadd.d	ft4,ft0,ft1
    800012ac:	021072d3          	fadd.d	ft5,ft0,ft1
    800012b0:	02107353          	fadd.d	ft6,ft0,ft1
    800012b4:	021073d3          	fadd.d	ft7,ft0,ft1
    800012b8:	02107453          	fadd.d	fs0,ft0,ft1
    800012bc:	021074d3          	fadd.d	fs1,ft0,ft1
    800012c0:	02107153          	fadd.d	ft2,ft0,ft1
    800012c4:	021071d3          	fadd.d	ft3,ft0,ft1
    800012c8:	02107253          	fadd.d	ft4,ft0,ft1
    800012cc:	021072d3          	fadd.d	ft5,ft0,ft1
    800012d0:	02107353          	fadd.d	ft6,ft0,ft1
    800012d4:	021073d3          	fadd.d	ft7,ft0,ft1
    800012d8:	02107453          	fadd.d	fs0,ft0,ft1
    800012dc:	021074d3          	fadd.d	fs1,ft0,ft1
    800012e0:	02107153          	fadd.d	ft2,ft0,ft1
    800012e4:	021071d3          	fadd.d	ft3,ft0,ft1
    800012e8:	02107253          	fadd.d	ft4,ft0,ft1
    800012ec:	021072d3          	fadd.d	ft5,ft0,ft1
    800012f0:	02107353          	fadd.d	ft6,ft0,ft1
    800012f4:	021073d3          	fadd.d	ft7,ft0,ft1
    800012f8:	02107453          	fadd.d	fs0,ft0,ft1
    800012fc:	021074d3          	fadd.d	fs1,ft0,ft1
    80001300:	02107153          	fadd.d	ft2,ft0,ft1
    80001304:	021071d3          	fadd.d	ft3,ft0,ft1
    80001308:	02107253          	fadd.d	ft4,ft0,ft1
    8000130c:	021072d3          	fadd.d	ft5,ft0,ft1
    80001310:	02107353          	fadd.d	ft6,ft0,ft1
    80001314:	021073d3          	fadd.d	ft7,ft0,ft1
    80001318:	02107453          	fadd.d	fs0,ft0,ft1
    8000131c:	021074d3          	fadd.d	fs1,ft0,ft1
    80001320:	02107153          	fadd.d	ft2,ft0,ft1
    80001324:	021071d3          	fadd.d	ft3,ft0,ft1
    80001328:	02107253          	fadd.d	ft4,ft0,ft1
    8000132c:	021072d3          	fadd.d	ft5,ft0,ft1
    80001330:	02107353          	fadd.d	ft6,ft0,ft1
    80001334:	021073d3          	fadd.d	ft7,ft0,ft1
    80001338:	02107453          	fadd.d	fs0,ft0,ft1
    8000133c:	021074d3          	fadd.d	fs1,ft0,ft1
    80001340:	02107153          	fadd.d	ft2,ft0,ft1
    80001344:	021071d3          	fadd.d	ft3,ft0,ft1
    80001348:	02107253          	fadd.d	ft4,ft0,ft1
    8000134c:	021072d3          	fadd.d	ft5,ft0,ft1
    80001350:	02107353          	fadd.d	ft6,ft0,ft1
    80001354:	021073d3          	fadd.d	ft7,ft0,ft1
    80001358:	02107453          	fadd.d	fs0,ft0,ft1
    8000135c:	021074d3          	fadd.d	fs1,ft0,ft1
    80001360:	02107153          	fadd.d	ft2,ft0,ft1
    80001364:	021071d3          	fadd.d	ft3,ft0,ft1
    80001368:	02107253          	fadd.d	ft4,ft0,ft1
    8000136c:	021072d3          	fadd.d	ft5,ft0,ft1
    80001370:	02107353          	fadd.d	ft6,ft0,ft1
    80001374:	021073d3          	fadd.d	ft7,ft0,ft1
    80001378:	02107453          	fadd.d	fs0,ft0,ft1
    8000137c:	021074d3          	fadd.d	fs1,ft0,ft1
    80001380:	02107153          	fadd.d	ft2,ft0,ft1
    80001384:	021071d3          	fadd.d	ft3,ft0,ft1
    80001388:	02107253          	fadd.d	ft4,ft0,ft1
    8000138c:	021072d3          	fadd.d	ft5,ft0,ft1
    80001390:	02107353          	fadd.d	ft6,ft0,ft1
    80001394:	021073d3          	fadd.d	ft7,ft0,ft1
    80001398:	02107453          	fadd.d	fs0,ft0,ft1
    8000139c:	021074d3          	fadd.d	fs1,ft0,ft1
    800013a0:	02107153          	fadd.d	ft2,ft0,ft1
    800013a4:	021071d3          	fadd.d	ft3,ft0,ft1
    800013a8:	02107253          	fadd.d	ft4,ft0,ft1
    800013ac:	021072d3          	fadd.d	ft5,ft0,ft1
    800013b0:	02107353          	fadd.d	ft6,ft0,ft1
    800013b4:	021073d3          	fadd.d	ft7,ft0,ft1
    800013b8:	02107453          	fadd.d	fs0,ft0,ft1
    800013bc:	021074d3          	fadd.d	fs1,ft0,ft1
    800013c0:	02107153          	fadd.d	ft2,ft0,ft1
    800013c4:	021071d3          	fadd.d	ft3,ft0,ft1
    800013c8:	02107253          	fadd.d	ft4,ft0,ft1
    800013cc:	021072d3          	fadd.d	ft5,ft0,ft1
    800013d0:	02107353          	fadd.d	ft6,ft0,ft1
    800013d4:	021073d3          	fadd.d	ft7,ft0,ft1
    800013d8:	02107453          	fadd.d	fs0,ft0,ft1
    800013dc:	021074d3          	fadd.d	fs1,ft0,ft1
    800013e0:	02107153          	fadd.d	ft2,ft0,ft1
    800013e4:	021071d3          	fadd.d	ft3,ft0,ft1
    800013e8:	02107253          	fadd.d	ft4,ft0,ft1
    800013ec:	021072d3          	fadd.d	ft5,ft0,ft1
    800013f0:	02107353          	fadd.d	ft6,ft0,ft1
    800013f4:	021073d3          	fadd.d	ft7,ft0,ft1
    800013f8:	02107453          	fadd.d	fs0,ft0,ft1
    800013fc:	021074d3          	fadd.d	fs1,ft0,ft1
    80001400:	02107153          	fadd.d	ft2,ft0,ft1
    80001404:	021071d3          	fadd.d	ft3,ft0,ft1
    80001408:	02107253          	fadd.d	ft4,ft0,ft1
    8000140c:	021072d3          	fadd.d	ft5,ft0,ft1
    80001410:	02107353          	fadd.d	ft6,ft0,ft1
    80001414:	021073d3          	fadd.d	ft7,ft0,ft1
    80001418:	02107453          	fadd.d	fs0,ft0,ft1
    8000141c:	021074d3          	fadd.d	fs1,ft0,ft1
    80001420:	02107153          	fadd.d	ft2,ft0,ft1
    80001424:	021071d3          	fadd.d	ft3,ft0,ft1
    80001428:	02107253          	fadd.d	ft4,ft0,ft1
    8000142c:	021072d3          	fadd.d	ft5,ft0,ft1
    80001430:	02107353          	fadd.d	ft6,ft0,ft1
    80001434:	021073d3          	fadd.d	ft7,ft0,ft1
    80001438:	02107453          	fadd.d	fs0,ft0,ft1
    8000143c:	021074d3          	fadd.d	fs1,ft0,ft1
    80001440:	02107153          	fadd.d	ft2,ft0,ft1
    80001444:	021071d3          	fadd.d	ft3,ft0,ft1
    80001448:	02107253          	fadd.d	ft4,ft0,ft1
    8000144c:	021072d3          	fadd.d	ft5,ft0,ft1
    80001450:	02107353          	fadd.d	ft6,ft0,ft1
    80001454:	021073d3          	fadd.d	ft7,ft0,ft1
    80001458:	02107453          	fadd.d	fs0,ft0,ft1
    8000145c:	021074d3          	fadd.d	fs1,ft0,ft1
    80001460:	02107153          	fadd.d	ft2,ft0,ft1
    80001464:	021071d3          	fadd.d	ft3,ft0,ft1
    80001468:	02107253          	fadd.d	ft4,ft0,ft1
    8000146c:	021072d3          	fadd.d	ft5,ft0,ft1
    80001470:	02107353          	fadd.d	ft6,ft0,ft1
    80001474:	021073d3          	fadd.d	ft7,ft0,ft1
    80001478:	02107453          	fadd.d	fs0,ft0,ft1
    8000147c:	021074d3          	fadd.d	fs1,ft0,ft1
    80001480:	02107153          	fadd.d	ft2,ft0,ft1
    80001484:	021071d3          	fadd.d	ft3,ft0,ft1
    80001488:	02107253          	fadd.d	ft4,ft0,ft1
    8000148c:	021072d3          	fadd.d	ft5,ft0,ft1
    80001490:	02107353          	fadd.d	ft6,ft0,ft1
    80001494:	021073d3          	fadd.d	ft7,ft0,ft1
    80001498:	02107453          	fadd.d	fs0,ft0,ft1
    8000149c:	021074d3          	fadd.d	fs1,ft0,ft1
    800014a0:	02107153          	fadd.d	ft2,ft0,ft1
    800014a4:	021071d3          	fadd.d	ft3,ft0,ft1
    800014a8:	02107253          	fadd.d	ft4,ft0,ft1
    800014ac:	021072d3          	fadd.d	ft5,ft0,ft1
    800014b0:	02107353          	fadd.d	ft6,ft0,ft1
    800014b4:	021073d3          	fadd.d	ft7,ft0,ft1
    800014b8:	02107453          	fadd.d	fs0,ft0,ft1
    800014bc:	021074d3          	fadd.d	fs1,ft0,ft1
    800014c0:	02107153          	fadd.d	ft2,ft0,ft1
    800014c4:	021071d3          	fadd.d	ft3,ft0,ft1
    800014c8:	02107253          	fadd.d	ft4,ft0,ft1
    800014cc:	021072d3          	fadd.d	ft5,ft0,ft1
    800014d0:	02107353          	fadd.d	ft6,ft0,ft1
    800014d4:	021073d3          	fadd.d	ft7,ft0,ft1
    800014d8:	02107453          	fadd.d	fs0,ft0,ft1
    800014dc:	021074d3          	fadd.d	fs1,ft0,ft1
    800014e0:	02107153          	fadd.d	ft2,ft0,ft1
    800014e4:	021071d3          	fadd.d	ft3,ft0,ft1
    800014e8:	02107253          	fadd.d	ft4,ft0,ft1
    800014ec:	021072d3          	fadd.d	ft5,ft0,ft1
    800014f0:	02107353          	fadd.d	ft6,ft0,ft1
    800014f4:	021073d3          	fadd.d	ft7,ft0,ft1
    800014f8:	02107453          	fadd.d	fs0,ft0,ft1
    800014fc:	021074d3          	fadd.d	fs1,ft0,ft1
    80001500:	02107153          	fadd.d	ft2,ft0,ft1
    80001504:	021071d3          	fadd.d	ft3,ft0,ft1
    80001508:	02107253          	fadd.d	ft4,ft0,ft1
    8000150c:	021072d3          	fadd.d	ft5,ft0,ft1
    80001510:	02107353          	fadd.d	ft6,ft0,ft1
    80001514:	021073d3          	fadd.d	ft7,ft0,ft1
    80001518:	02107453          	fadd.d	fs0,ft0,ft1
    8000151c:	021074d3          	fadd.d	fs1,ft0,ft1
    80001520:	02107153          	fadd.d	ft2,ft0,ft1
    80001524:	021071d3          	fadd.d	ft3,ft0,ft1
    80001528:	02107253          	fadd.d	ft4,ft0,ft1
    8000152c:	021072d3          	fadd.d	ft5,ft0,ft1
    80001530:	02107353          	fadd.d	ft6,ft0,ft1
    80001534:	021073d3          	fadd.d	ft7,ft0,ft1
    80001538:	02107453          	fadd.d	fs0,ft0,ft1
    8000153c:	021074d3          	fadd.d	fs1,ft0,ft1
    80001540:	02107153          	fadd.d	ft2,ft0,ft1
    80001544:	021071d3          	fadd.d	ft3,ft0,ft1
    80001548:	02107253          	fadd.d	ft4,ft0,ft1
    8000154c:	021072d3          	fadd.d	ft5,ft0,ft1
    80001550:	02107353          	fadd.d	ft6,ft0,ft1
    80001554:	021073d3          	fadd.d	ft7,ft0,ft1
    80001558:	02107453          	fadd.d	fs0,ft0,ft1
    8000155c:	021074d3          	fadd.d	fs1,ft0,ft1
    80001560:	02107153          	fadd.d	ft2,ft0,ft1
    80001564:	021071d3          	fadd.d	ft3,ft0,ft1
    80001568:	02107253          	fadd.d	ft4,ft0,ft1
    8000156c:	021072d3          	fadd.d	ft5,ft0,ft1
    80001570:	02107353          	fadd.d	ft6,ft0,ft1
    80001574:	021073d3          	fadd.d	ft7,ft0,ft1
    80001578:	02107453          	fadd.d	fs0,ft0,ft1
    8000157c:	021074d3          	fadd.d	fs1,ft0,ft1
    80001580:	02107153          	fadd.d	ft2,ft0,ft1
    80001584:	021071d3          	fadd.d	ft3,ft0,ft1
    80001588:	02107253          	fadd.d	ft4,ft0,ft1
    8000158c:	021072d3          	fadd.d	ft5,ft0,ft1
    80001590:	02107353          	fadd.d	ft6,ft0,ft1
    80001594:	021073d3          	fadd.d	ft7,ft0,ft1
    80001598:	02107453          	fadd.d	fs0,ft0,ft1
    8000159c:	021074d3          	fadd.d	fs1,ft0,ft1
    800015a0:	02107153          	fadd.d	ft2,ft0,ft1
    800015a4:	021071d3          	fadd.d	ft3,ft0,ft1
    800015a8:	02107253          	fadd.d	ft4,ft0,ft1
    800015ac:	021072d3          	fadd.d	ft5,ft0,ft1
    800015b0:	02107353          	fadd.d	ft6,ft0,ft1
    800015b4:	021073d3          	fadd.d	ft7,ft0,ft1
    800015b8:	02107453          	fadd.d	fs0,ft0,ft1
    800015bc:	021074d3          	fadd.d	fs1,ft0,ft1
    800015c0:	02107153          	fadd.d	ft2,ft0,ft1
    800015c4:	021071d3          	fadd.d	ft3,ft0,ft1
    800015c8:	02107253          	fadd.d	ft4,ft0,ft1
    800015cc:	021072d3          	fadd.d	ft5,ft0,ft1
    800015d0:	02107353          	fadd.d	ft6,ft0,ft1
    800015d4:	021073d3          	fadd.d	ft7,ft0,ft1
    800015d8:	02107453          	fadd.d	fs0,ft0,ft1
    800015dc:	021074d3          	fadd.d	fs1,ft0,ft1
    800015e0:	02107153          	fadd.d	ft2,ft0,ft1
    800015e4:	021071d3          	fadd.d	ft3,ft0,ft1
    800015e8:	02107253          	fadd.d	ft4,ft0,ft1
    800015ec:	021072d3          	fadd.d	ft5,ft0,ft1
    800015f0:	02107353          	fadd.d	ft6,ft0,ft1
    800015f4:	021073d3          	fadd.d	ft7,ft0,ft1
    800015f8:	02107453          	fadd.d	fs0,ft0,ft1
    800015fc:	021074d3          	fadd.d	fs1,ft0,ft1
    80001600:	02107153          	fadd.d	ft2,ft0,ft1
    80001604:	021071d3          	fadd.d	ft3,ft0,ft1
    80001608:	02107253          	fadd.d	ft4,ft0,ft1
    8000160c:	021072d3          	fadd.d	ft5,ft0,ft1
    80001610:	02107353          	fadd.d	ft6,ft0,ft1
    80001614:	021073d3          	fadd.d	ft7,ft0,ft1
    80001618:	02107453          	fadd.d	fs0,ft0,ft1
    8000161c:	021074d3          	fadd.d	fs1,ft0,ft1
    80001620:	02107153          	fadd.d	ft2,ft0,ft1
    80001624:	021071d3          	fadd.d	ft3,ft0,ft1
    80001628:	02107253          	fadd.d	ft4,ft0,ft1
    8000162c:	021072d3          	fadd.d	ft5,ft0,ft1
    80001630:	02107353          	fadd.d	ft6,ft0,ft1
    80001634:	021073d3          	fadd.d	ft7,ft0,ft1
    80001638:	02107453          	fadd.d	fs0,ft0,ft1
    8000163c:	021074d3          	fadd.d	fs1,ft0,ft1
    80001640:	02107153          	fadd.d	ft2,ft0,ft1
    80001644:	021071d3          	fadd.d	ft3,ft0,ft1
    80001648:	02107253          	fadd.d	ft4,ft0,ft1
    8000164c:	021072d3          	fadd.d	ft5,ft0,ft1
    80001650:	02107353          	fadd.d	ft6,ft0,ft1
    80001654:	021073d3          	fadd.d	ft7,ft0,ft1
    80001658:	02107453          	fadd.d	fs0,ft0,ft1
    8000165c:	021074d3          	fadd.d	fs1,ft0,ft1
    80001660:	02107153          	fadd.d	ft2,ft0,ft1
    80001664:	021071d3          	fadd.d	ft3,ft0,ft1
    80001668:	02107253          	fadd.d	ft4,ft0,ft1
    8000166c:	021072d3          	fadd.d	ft5,ft0,ft1
    80001670:	02107353          	fadd.d	ft6,ft0,ft1
    80001674:	021073d3          	fadd.d	ft7,ft0,ft1
    80001678:	02107453          	fadd.d	fs0,ft0,ft1
    8000167c:	021074d3          	fadd.d	fs1,ft0,ft1
    80001680:	02107153          	fadd.d	ft2,ft0,ft1
    80001684:	021071d3          	fadd.d	ft3,ft0,ft1
    80001688:	02107253          	fadd.d	ft4,ft0,ft1
    8000168c:	021072d3          	fadd.d	ft5,ft0,ft1
    80001690:	02107353          	fadd.d	ft6,ft0,ft1
    80001694:	021073d3          	fadd.d	ft7,ft0,ft1
    80001698:	02107453          	fadd.d	fs0,ft0,ft1
    8000169c:	021074d3          	fadd.d	fs1,ft0,ft1
    800016a0:	02107153          	fadd.d	ft2,ft0,ft1
    800016a4:	021071d3          	fadd.d	ft3,ft0,ft1
    800016a8:	02107253          	fadd.d	ft4,ft0,ft1
    800016ac:	021072d3          	fadd.d	ft5,ft0,ft1
    800016b0:	02107353          	fadd.d	ft6,ft0,ft1
    800016b4:	021073d3          	fadd.d	ft7,ft0,ft1
    800016b8:	02107453          	fadd.d	fs0,ft0,ft1
    800016bc:	021074d3          	fadd.d	fs1,ft0,ft1
    800016c0:	02107153          	fadd.d	ft2,ft0,ft1
    800016c4:	021071d3          	fadd.d	ft3,ft0,ft1
    800016c8:	02107253          	fadd.d	ft4,ft0,ft1
    800016cc:	021072d3          	fadd.d	ft5,ft0,ft1
    800016d0:	02107353          	fadd.d	ft6,ft0,ft1
    800016d4:	021073d3          	fadd.d	ft7,ft0,ft1
    800016d8:	02107453          	fadd.d	fs0,ft0,ft1
    800016dc:	021074d3          	fadd.d	fs1,ft0,ft1
    800016e0:	02107153          	fadd.d	ft2,ft0,ft1
    800016e4:	021071d3          	fadd.d	ft3,ft0,ft1
    800016e8:	02107253          	fadd.d	ft4,ft0,ft1
    800016ec:	021072d3          	fadd.d	ft5,ft0,ft1
    800016f0:	02107353          	fadd.d	ft6,ft0,ft1
    800016f4:	021073d3          	fadd.d	ft7,ft0,ft1
    800016f8:	02107453          	fadd.d	fs0,ft0,ft1
    800016fc:	021074d3          	fadd.d	fs1,ft0,ft1
    80001700:	02107153          	fadd.d	ft2,ft0,ft1
    80001704:	021071d3          	fadd.d	ft3,ft0,ft1
    80001708:	02107253          	fadd.d	ft4,ft0,ft1
    8000170c:	021072d3          	fadd.d	ft5,ft0,ft1
    80001710:	02107353          	fadd.d	ft6,ft0,ft1
    80001714:	021073d3          	fadd.d	ft7,ft0,ft1
    80001718:	02107453          	fadd.d	fs0,ft0,ft1
    8000171c:	021074d3          	fadd.d	fs1,ft0,ft1
    80001720:	02107153          	fadd.d	ft2,ft0,ft1
    80001724:	021071d3          	fadd.d	ft3,ft0,ft1
    80001728:	02107253          	fadd.d	ft4,ft0,ft1
    8000172c:	021072d3          	fadd.d	ft5,ft0,ft1
    80001730:	02107353          	fadd.d	ft6,ft0,ft1
    80001734:	021073d3          	fadd.d	ft7,ft0,ft1
    80001738:	02107453          	fadd.d	fs0,ft0,ft1
    8000173c:	021074d3          	fadd.d	fs1,ft0,ft1
    80001740:	02107153          	fadd.d	ft2,ft0,ft1
    80001744:	021071d3          	fadd.d	ft3,ft0,ft1
    80001748:	02107253          	fadd.d	ft4,ft0,ft1
    8000174c:	021072d3          	fadd.d	ft5,ft0,ft1
    80001750:	02107353          	fadd.d	ft6,ft0,ft1
    80001754:	021073d3          	fadd.d	ft7,ft0,ft1
    80001758:	02107453          	fadd.d	fs0,ft0,ft1
    8000175c:	021074d3          	fadd.d	fs1,ft0,ft1
    80001760:	02107153          	fadd.d	ft2,ft0,ft1
    80001764:	021071d3          	fadd.d	ft3,ft0,ft1
    80001768:	02107253          	fadd.d	ft4,ft0,ft1
    8000176c:	021072d3          	fadd.d	ft5,ft0,ft1
    80001770:	02107353          	fadd.d	ft6,ft0,ft1
    80001774:	021073d3          	fadd.d	ft7,ft0,ft1
    80001778:	02107453          	fadd.d	fs0,ft0,ft1
    8000177c:	021074d3          	fadd.d	fs1,ft0,ft1
    80001780:	02107153          	fadd.d	ft2,ft0,ft1
    80001784:	021071d3          	fadd.d	ft3,ft0,ft1
    80001788:	02107253          	fadd.d	ft4,ft0,ft1
    8000178c:	021072d3          	fadd.d	ft5,ft0,ft1
    80001790:	02107353          	fadd.d	ft6,ft0,ft1
    80001794:	021073d3          	fadd.d	ft7,ft0,ft1
    80001798:	02107453          	fadd.d	fs0,ft0,ft1
    8000179c:	021074d3          	fadd.d	fs1,ft0,ft1
    800017a0:	02107153          	fadd.d	ft2,ft0,ft1
    800017a4:	021071d3          	fadd.d	ft3,ft0,ft1
    800017a8:	02107253          	fadd.d	ft4,ft0,ft1
    800017ac:	021072d3          	fadd.d	ft5,ft0,ft1
    800017b0:	02107353          	fadd.d	ft6,ft0,ft1
    800017b4:	021073d3          	fadd.d	ft7,ft0,ft1
    800017b8:	02107453          	fadd.d	fs0,ft0,ft1
    800017bc:	021074d3          	fadd.d	fs1,ft0,ft1
    800017c0:	02107153          	fadd.d	ft2,ft0,ft1
    800017c4:	021071d3          	fadd.d	ft3,ft0,ft1
    800017c8:	02107253          	fadd.d	ft4,ft0,ft1
    800017cc:	021072d3          	fadd.d	ft5,ft0,ft1
    800017d0:	02107353          	fadd.d	ft6,ft0,ft1
    800017d4:	021073d3          	fadd.d	ft7,ft0,ft1
    800017d8:	02107453          	fadd.d	fs0,ft0,ft1
    800017dc:	021074d3          	fadd.d	fs1,ft0,ft1
    800017e0:	02107153          	fadd.d	ft2,ft0,ft1
    800017e4:	021071d3          	fadd.d	ft3,ft0,ft1
    800017e8:	02107253          	fadd.d	ft4,ft0,ft1
    800017ec:	021072d3          	fadd.d	ft5,ft0,ft1
    800017f0:	02107353          	fadd.d	ft6,ft0,ft1
    800017f4:	021073d3          	fadd.d	ft7,ft0,ft1
    800017f8:	02107453          	fadd.d	fs0,ft0,ft1
    800017fc:	021074d3          	fadd.d	fs1,ft0,ft1
    80001800:	02107153          	fadd.d	ft2,ft0,ft1
    80001804:	021071d3          	fadd.d	ft3,ft0,ft1
    80001808:	02107253          	fadd.d	ft4,ft0,ft1
    8000180c:	021072d3          	fadd.d	ft5,ft0,ft1
    80001810:	02107353          	fadd.d	ft6,ft0,ft1
    80001814:	021073d3          	fadd.d	ft7,ft0,ft1
    80001818:	02107453          	fadd.d	fs0,ft0,ft1
    8000181c:	021074d3          	fadd.d	fs1,ft0,ft1
    80001820:	02107153          	fadd.d	ft2,ft0,ft1
    80001824:	021071d3          	fadd.d	ft3,ft0,ft1
    80001828:	02107253          	fadd.d	ft4,ft0,ft1
    8000182c:	021072d3          	fadd.d	ft5,ft0,ft1
    80001830:	02107353          	fadd.d	ft6,ft0,ft1
    80001834:	021073d3          	fadd.d	ft7,ft0,ft1
    80001838:	02107453          	fadd.d	fs0,ft0,ft1
    8000183c:	021074d3          	fadd.d	fs1,ft0,ft1
    80001840:	02107153          	fadd.d	ft2,ft0,ft1
    80001844:	021071d3          	fadd.d	ft3,ft0,ft1
    80001848:	02107253          	fadd.d	ft4,ft0,ft1
    8000184c:	021072d3          	fadd.d	ft5,ft0,ft1
    80001850:	02107353          	fadd.d	ft6,ft0,ft1
    80001854:	021073d3          	fadd.d	ft7,ft0,ft1
    80001858:	02107453          	fadd.d	fs0,ft0,ft1
    8000185c:	021074d3          	fadd.d	fs1,ft0,ft1
    80001860:	02107153          	fadd.d	ft2,ft0,ft1
    80001864:	021071d3          	fadd.d	ft3,ft0,ft1
    80001868:	02107253          	fadd.d	ft4,ft0,ft1
    8000186c:	021072d3          	fadd.d	ft5,ft0,ft1
    80001870:	02107353          	fadd.d	ft6,ft0,ft1
    80001874:	021073d3          	fadd.d	ft7,ft0,ft1
    80001878:	02107453          	fadd.d	fs0,ft0,ft1
    8000187c:	021074d3          	fadd.d	fs1,ft0,ft1
    80001880:	02107153          	fadd.d	ft2,ft0,ft1
    80001884:	021071d3          	fadd.d	ft3,ft0,ft1
    80001888:	02107253          	fadd.d	ft4,ft0,ft1
    8000188c:	021072d3          	fadd.d	ft5,ft0,ft1
    80001890:	02107353          	fadd.d	ft6,ft0,ft1
    80001894:	021073d3          	fadd.d	ft7,ft0,ft1
    80001898:	02107453          	fadd.d	fs0,ft0,ft1
    8000189c:	021074d3          	fadd.d	fs1,ft0,ft1
    800018a0:	02107153          	fadd.d	ft2,ft0,ft1
    800018a4:	021071d3          	fadd.d	ft3,ft0,ft1
    800018a8:	02107253          	fadd.d	ft4,ft0,ft1
    800018ac:	021072d3          	fadd.d	ft5,ft0,ft1
    800018b0:	02107353          	fadd.d	ft6,ft0,ft1
    800018b4:	021073d3          	fadd.d	ft7,ft0,ft1
    800018b8:	02107453          	fadd.d	fs0,ft0,ft1
    800018bc:	021074d3          	fadd.d	fs1,ft0,ft1
    800018c0:	02107153          	fadd.d	ft2,ft0,ft1
    800018c4:	021071d3          	fadd.d	ft3,ft0,ft1
    800018c8:	02107253          	fadd.d	ft4,ft0,ft1
    800018cc:	021072d3          	fadd.d	ft5,ft0,ft1
    800018d0:	02107353          	fadd.d	ft6,ft0,ft1
    800018d4:	021073d3          	fadd.d	ft7,ft0,ft1
    800018d8:	02107453          	fadd.d	fs0,ft0,ft1
    800018dc:	021074d3          	fadd.d	fs1,ft0,ft1
    800018e0:	02107153          	fadd.d	ft2,ft0,ft1
    800018e4:	021071d3          	fadd.d	ft3,ft0,ft1
    800018e8:	02107253          	fadd.d	ft4,ft0,ft1
    800018ec:	021072d3          	fadd.d	ft5,ft0,ft1
    800018f0:	02107353          	fadd.d	ft6,ft0,ft1
    800018f4:	021073d3          	fadd.d	ft7,ft0,ft1
    800018f8:	02107453          	fadd.d	fs0,ft0,ft1
    800018fc:	021074d3          	fadd.d	fs1,ft0,ft1
    80001900:	02107153          	fadd.d	ft2,ft0,ft1
    80001904:	021071d3          	fadd.d	ft3,ft0,ft1
    80001908:	02107253          	fadd.d	ft4,ft0,ft1
    8000190c:	021072d3          	fadd.d	ft5,ft0,ft1
    80001910:	02107353          	fadd.d	ft6,ft0,ft1
    80001914:	021073d3          	fadd.d	ft7,ft0,ft1
    80001918:	02107453          	fadd.d	fs0,ft0,ft1
    8000191c:	021074d3          	fadd.d	fs1,ft0,ft1
    80001920:	02107153          	fadd.d	ft2,ft0,ft1
    80001924:	021071d3          	fadd.d	ft3,ft0,ft1
    80001928:	02107253          	fadd.d	ft4,ft0,ft1
    8000192c:	021072d3          	fadd.d	ft5,ft0,ft1
    80001930:	02107353          	fadd.d	ft6,ft0,ft1
    80001934:	021073d3          	fadd.d	ft7,ft0,ft1
    80001938:	02107453          	fadd.d	fs0,ft0,ft1
    8000193c:	021074d3          	fadd.d	fs1,ft0,ft1
    80001940:	02107153          	fadd.d	ft2,ft0,ft1
    80001944:	021071d3          	fadd.d	ft3,ft0,ft1
    80001948:	02107253          	fadd.d	ft4,ft0,ft1
    8000194c:	021072d3          	fadd.d	ft5,ft0,ft1
    80001950:	02107353          	fadd.d	ft6,ft0,ft1
    80001954:	021073d3          	fadd.d	ft7,ft0,ft1
    80001958:	02107453          	fadd.d	fs0,ft0,ft1
    8000195c:	021074d3          	fadd.d	fs1,ft0,ft1
    80001960:	02107153          	fadd.d	ft2,ft0,ft1
    80001964:	021071d3          	fadd.d	ft3,ft0,ft1
    80001968:	02107253          	fadd.d	ft4,ft0,ft1
    8000196c:	021072d3          	fadd.d	ft5,ft0,ft1
    80001970:	02107353          	fadd.d	ft6,ft0,ft1
    80001974:	021073d3          	fadd.d	ft7,ft0,ft1
    80001978:	02107453          	fadd.d	fs0,ft0,ft1
    8000197c:	021074d3          	fadd.d	fs1,ft0,ft1
    80001980:	02107153          	fadd.d	ft2,ft0,ft1
    80001984:	021071d3          	fadd.d	ft3,ft0,ft1
    80001988:	02107253          	fadd.d	ft4,ft0,ft1
    8000198c:	021072d3          	fadd.d	ft5,ft0,ft1
    80001990:	02107353          	fadd.d	ft6,ft0,ft1
    80001994:	021073d3          	fadd.d	ft7,ft0,ft1
    80001998:	02107453          	fadd.d	fs0,ft0,ft1
    8000199c:	021074d3          	fadd.d	fs1,ft0,ft1
    800019a0:	02107153          	fadd.d	ft2,ft0,ft1
    800019a4:	021071d3          	fadd.d	ft3,ft0,ft1
    800019a8:	02107253          	fadd.d	ft4,ft0,ft1
    800019ac:	021072d3          	fadd.d	ft5,ft0,ft1
    800019b0:	02107353          	fadd.d	ft6,ft0,ft1
    800019b4:	021073d3          	fadd.d	ft7,ft0,ft1
    800019b8:	02107453          	fadd.d	fs0,ft0,ft1
    800019bc:	021074d3          	fadd.d	fs1,ft0,ft1
    800019c0:	02107153          	fadd.d	ft2,ft0,ft1
    800019c4:	021071d3          	fadd.d	ft3,ft0,ft1
    800019c8:	02107253          	fadd.d	ft4,ft0,ft1
    800019cc:	021072d3          	fadd.d	ft5,ft0,ft1
    800019d0:	02107353          	fadd.d	ft6,ft0,ft1
    800019d4:	021073d3          	fadd.d	ft7,ft0,ft1
    800019d8:	02107453          	fadd.d	fs0,ft0,ft1
    800019dc:	021074d3          	fadd.d	fs1,ft0,ft1
    800019e0:	02107153          	fadd.d	ft2,ft0,ft1
    800019e4:	021071d3          	fadd.d	ft3,ft0,ft1
    800019e8:	02107253          	fadd.d	ft4,ft0,ft1
    800019ec:	021072d3          	fadd.d	ft5,ft0,ft1
    800019f0:	02107353          	fadd.d	ft6,ft0,ft1
    800019f4:	021073d3          	fadd.d	ft7,ft0,ft1
    800019f8:	02107453          	fadd.d	fs0,ft0,ft1
    800019fc:	021074d3          	fadd.d	fs1,ft0,ft1
    80001a00:	02107153          	fadd.d	ft2,ft0,ft1
    80001a04:	021071d3          	fadd.d	ft3,ft0,ft1
    80001a08:	02107253          	fadd.d	ft4,ft0,ft1
    80001a0c:	021072d3          	fadd.d	ft5,ft0,ft1
    80001a10:	02107353          	fadd.d	ft6,ft0,ft1
    80001a14:	021073d3          	fadd.d	ft7,ft0,ft1
    80001a18:	02107453          	fadd.d	fs0,ft0,ft1
    80001a1c:	021074d3          	fadd.d	fs1,ft0,ft1
    80001a20:	02107153          	fadd.d	ft2,ft0,ft1
    80001a24:	021071d3          	fadd.d	ft3,ft0,ft1
    80001a28:	02107253          	fadd.d	ft4,ft0,ft1
    80001a2c:	021072d3          	fadd.d	ft5,ft0,ft1
    80001a30:	02107353          	fadd.d	ft6,ft0,ft1
    80001a34:	021073d3          	fadd.d	ft7,ft0,ft1
    80001a38:	02107453          	fadd.d	fs0,ft0,ft1
    80001a3c:	021074d3          	fadd.d	fs1,ft0,ft1
    80001a40:	02107153          	fadd.d	ft2,ft0,ft1
    80001a44:	021071d3          	fadd.d	ft3,ft0,ft1
    80001a48:	02107253          	fadd.d	ft4,ft0,ft1
    80001a4c:	021072d3          	fadd.d	ft5,ft0,ft1
    80001a50:	02107353          	fadd.d	ft6,ft0,ft1
    80001a54:	021073d3          	fadd.d	ft7,ft0,ft1
    80001a58:	02107453          	fadd.d	fs0,ft0,ft1
    80001a5c:	021074d3          	fadd.d	fs1,ft0,ft1
    80001a60:	02107153          	fadd.d	ft2,ft0,ft1
    80001a64:	021071d3          	fadd.d	ft3,ft0,ft1
    80001a68:	02107253          	fadd.d	ft4,ft0,ft1
    80001a6c:	021072d3          	fadd.d	ft5,ft0,ft1
    80001a70:	02107353          	fadd.d	ft6,ft0,ft1
    80001a74:	021073d3          	fadd.d	ft7,ft0,ft1
    80001a78:	02107453          	fadd.d	fs0,ft0,ft1
    80001a7c:	021074d3          	fadd.d	fs1,ft0,ft1
    80001a80:	157d                	addi	a0,a0,-1
    80001a82:	b6051f63          	bnez	a0,80000e00 <fpuwidth+0x7e>
    80001a86:	2422                	fld	fs0,8(sp)
    80001a88:	2482                	fld	fs1,0(sp)
    80001a8a:	0141                	addi	sp,sp,16
    80001a8c:	8082                	ret

0000000080001a8e <fpuwidth_test>:
    80001a8e:	6505                	lui	a0,0x1
    80001a90:	7179                	addi	sp,sp,-48
    80001a92:	bb850513          	addi	a0,a0,-1096 # bb8 <i+0xb98>
    80001a96:	f406                	sd	ra,40(sp)
    80001a98:	ac22                	fsd	fs0,24(sp)
    80001a9a:	a826                	fsd	fs1,16(sp)
    80001a9c:	a44a                	fsd	fs2,8(sp)
    80001a9e:	a04e                	fsd	fs3,0(sp)
    80001aa0:	22a504d3          	fmv.d	fs1,fa0
    80001aa4:	adeff0ef          	jal	80000d82 <fpuwidth>
    80001aa8:	297010ef          	jal	8000353e <uptime>
    80001aac:	d2150453          	fcvt.d.wu	fs0,a0
    80001ab0:	6509                	lui	a0,0x2
    80001ab2:	71050513          	addi	a0,a0,1808 # 2710 <i+0x26f0>
    80001ab6:	00002797          	auipc	a5,0x2
    80001aba:	27a7b987          	fld	fs3,634(a5) # 80003d30 <am_keycode+0x218>
    80001abe:	00002797          	auipc	a5,0x2
    80001ac2:	27a7b907          	fld	fs2,634(a5) # 80003d38 <am_keycode+0x220>
    80001ac6:	abcff0ef          	jal	80000d82 <fpuwidth>
    80001aca:	275010ef          	jal	8000353e <uptime>
    80001ace:	d21507d3          	fcvt.d.wu	fa5,a0
    80001ad2:	13347453          	fmul.d	fs0,fs0,fs3
    80001ad6:	00002797          	auipc	a5,0x2
    80001ada:	26a7b707          	fld	fa4,618(a5) # 80003d40 <am_keycode+0x228>
    80001ade:	1337f7d3          	fmul.d	fa5,fa5,fs3
    80001ae2:	70a2                	ld	ra,40(sp)
    80001ae4:	2982                	fld	fs3,0(sp)
    80001ae6:	00002517          	auipc	a0,0x2
    80001aea:	d4a50513          	addi	a0,a0,-694 # 80003830 <__am_timer_read+0xc2>
    80001aee:	1b247453          	fdiv.d	fs0,fs0,fs2
    80001af2:	1b27f7d3          	fdiv.d	fa5,fa5,fs2
    80001af6:	2922                	fld	fs2,8(sp)
    80001af8:	0a87f7d3          	fsub.d	fa5,fa5,fs0
    80001afc:	2462                	fld	fs0,24(sp)
    80001afe:	1af777d3          	fdiv.d	fa5,fa4,fa5
    80001b02:	1a97f7d3          	fdiv.d	fa5,fa5,fs1
    80001b06:	24c2                	fld	fs1,16(sp)
    80001b08:	6145                	addi	sp,sp,48
    80001b0a:	e20785d3          	fmv.x.d	a1,fa5
    80001b0e:	1ff0106f          	j	8000350c <printf_>

0000000080001b12 <renamewidth>:
    80001b12:	1141                	addi	sp,sp,-16
    80001b14:	e426                	sd	s1,8(sp)
    80001b16:	882a                	mv	a6,a0
    80001b18:	00000013          	nop
    80001b1c:	00000013          	nop
    80001b20:	00000013          	nop
    80001b24:	00000013          	nop
    80001b28:	00000013          	nop
    80001b2c:	00000013          	nop
    80001b30:	00000013          	nop
    80001b34:	00000013          	nop
    80001b38:	00000013          	nop
    80001b3c:	00000013          	nop
    80001b40:	00000013          	nop
    80001b44:	00000013          	nop
    80001b48:	00000013          	nop
    80001b4c:	00000013          	nop
    80001b50:	00000013          	nop
    80001b54:	00000013          	nop
    80001b58:	00000013          	nop
    80001b5c:	00000013          	nop
    80001b60:	00000013          	nop
    80001b64:	00000013          	nop
    80001b68:	00000013          	nop
    80001b6c:	00000013          	nop
    80001b70:	00000013          	nop
    80001b74:	00000013          	nop
    80001b78:	00000013          	nop
    80001b7c:	00000013          	nop
    80001b80:	00000013          	nop
    80001b84:	00000013          	nop
    80001b88:	00000013          	nop
    80001b8c:	00000013          	nop
    80001b90:	00000013          	nop
    80001b94:	00000013          	nop
    80001b98:	00000013          	nop
    80001b9c:	00000013          	nop
    80001ba0:	00000013          	nop
    80001ba4:	00000013          	nop
    80001ba8:	00000013          	nop
    80001bac:	00000013          	nop
    80001bb0:	00000013          	nop
    80001bb4:	00000013          	nop
    80001bb8:	00000013          	nop
    80001bbc:	00000013          	nop
    80001bc0:	00000013          	nop
    80001bc4:	00000013          	nop
    80001bc8:	00000013          	nop
    80001bcc:	00000013          	nop
    80001bd0:	00000013          	nop
    80001bd4:	00000013          	nop
    80001bd8:	00000013          	nop
    80001bdc:	00000013          	nop
    80001be0:	00000013          	nop
    80001be4:	00000013          	nop
    80001be8:	00000013          	nop
    80001bec:	00000013          	nop
    80001bf0:	00000013          	nop
    80001bf4:	00000013          	nop
    80001bf8:	00000013          	nop
    80001bfc:	00000013          	nop
    80001c00:	02107153          	fadd.d	ft2,ft0,ft1
    80001c04:	94aa                	add	s1,s1,a0
    80001c06:	952e                	add	a0,a0,a1
    80001c08:	021071d3          	fadd.d	ft3,ft0,ft1
    80001c0c:	95b2                	add	a1,a1,a2
    80001c0e:	9636                	add	a2,a2,a3
    80001c10:	02107253          	fadd.d	ft4,ft0,ft1
    80001c14:	96ba                	add	a3,a3,a4
    80001c16:	973e                	add	a4,a4,a5
    80001c18:	02107153          	fadd.d	ft2,ft0,ft1
    80001c1c:	94aa                	add	s1,s1,a0
    80001c1e:	952e                	add	a0,a0,a1
    80001c20:	021071d3          	fadd.d	ft3,ft0,ft1
    80001c24:	95b2                	add	a1,a1,a2
    80001c26:	9636                	add	a2,a2,a3
    80001c28:	02107253          	fadd.d	ft4,ft0,ft1
    80001c2c:	96ba                	add	a3,a3,a4
    80001c2e:	973e                	add	a4,a4,a5
    80001c30:	02107153          	fadd.d	ft2,ft0,ft1
    80001c34:	94aa                	add	s1,s1,a0
    80001c36:	952e                	add	a0,a0,a1
    80001c38:	021071d3          	fadd.d	ft3,ft0,ft1
    80001c3c:	95b2                	add	a1,a1,a2
    80001c3e:	9636                	add	a2,a2,a3
    80001c40:	02107253          	fadd.d	ft4,ft0,ft1
    80001c44:	96ba                	add	a3,a3,a4
    80001c46:	973e                	add	a4,a4,a5
    80001c48:	02107153          	fadd.d	ft2,ft0,ft1
    80001c4c:	94aa                	add	s1,s1,a0
    80001c4e:	952e                	add	a0,a0,a1
    80001c50:	021071d3          	fadd.d	ft3,ft0,ft1
    80001c54:	95b2                	add	a1,a1,a2
    80001c56:	9636                	add	a2,a2,a3
    80001c58:	02107253          	fadd.d	ft4,ft0,ft1
    80001c5c:	96ba                	add	a3,a3,a4
    80001c5e:	973e                	add	a4,a4,a5
    80001c60:	02107153          	fadd.d	ft2,ft0,ft1
    80001c64:	94aa                	add	s1,s1,a0
    80001c66:	952e                	add	a0,a0,a1
    80001c68:	021071d3          	fadd.d	ft3,ft0,ft1
    80001c6c:	95b2                	add	a1,a1,a2
    80001c6e:	9636                	add	a2,a2,a3
    80001c70:	02107253          	fadd.d	ft4,ft0,ft1
    80001c74:	96ba                	add	a3,a3,a4
    80001c76:	973e                	add	a4,a4,a5
    80001c78:	02107153          	fadd.d	ft2,ft0,ft1
    80001c7c:	94aa                	add	s1,s1,a0
    80001c7e:	952e                	add	a0,a0,a1
    80001c80:	021071d3          	fadd.d	ft3,ft0,ft1
    80001c84:	95b2                	add	a1,a1,a2
    80001c86:	9636                	add	a2,a2,a3
    80001c88:	02107253          	fadd.d	ft4,ft0,ft1
    80001c8c:	96ba                	add	a3,a3,a4
    80001c8e:	973e                	add	a4,a4,a5
    80001c90:	02107153          	fadd.d	ft2,ft0,ft1
    80001c94:	94aa                	add	s1,s1,a0
    80001c96:	952e                	add	a0,a0,a1
    80001c98:	021071d3          	fadd.d	ft3,ft0,ft1
    80001c9c:	95b2                	add	a1,a1,a2
    80001c9e:	9636                	add	a2,a2,a3
    80001ca0:	02107253          	fadd.d	ft4,ft0,ft1
    80001ca4:	96ba                	add	a3,a3,a4
    80001ca6:	973e                	add	a4,a4,a5
    80001ca8:	02107153          	fadd.d	ft2,ft0,ft1
    80001cac:	94aa                	add	s1,s1,a0
    80001cae:	952e                	add	a0,a0,a1
    80001cb0:	021071d3          	fadd.d	ft3,ft0,ft1
    80001cb4:	95b2                	add	a1,a1,a2
    80001cb6:	9636                	add	a2,a2,a3
    80001cb8:	02107253          	fadd.d	ft4,ft0,ft1
    80001cbc:	96ba                	add	a3,a3,a4
    80001cbe:	973e                	add	a4,a4,a5
    80001cc0:	02107153          	fadd.d	ft2,ft0,ft1
    80001cc4:	94aa                	add	s1,s1,a0
    80001cc6:	952e                	add	a0,a0,a1
    80001cc8:	021071d3          	fadd.d	ft3,ft0,ft1
    80001ccc:	95b2                	add	a1,a1,a2
    80001cce:	9636                	add	a2,a2,a3
    80001cd0:	02107253          	fadd.d	ft4,ft0,ft1
    80001cd4:	96ba                	add	a3,a3,a4
    80001cd6:	973e                	add	a4,a4,a5
    80001cd8:	02107153          	fadd.d	ft2,ft0,ft1
    80001cdc:	94aa                	add	s1,s1,a0
    80001cde:	952e                	add	a0,a0,a1
    80001ce0:	021071d3          	fadd.d	ft3,ft0,ft1
    80001ce4:	95b2                	add	a1,a1,a2
    80001ce6:	9636                	add	a2,a2,a3
    80001ce8:	02107253          	fadd.d	ft4,ft0,ft1
    80001cec:	96ba                	add	a3,a3,a4
    80001cee:	973e                	add	a4,a4,a5
    80001cf0:	02107153          	fadd.d	ft2,ft0,ft1
    80001cf4:	94aa                	add	s1,s1,a0
    80001cf6:	952e                	add	a0,a0,a1
    80001cf8:	021071d3          	fadd.d	ft3,ft0,ft1
    80001cfc:	95b2                	add	a1,a1,a2
    80001cfe:	9636                	add	a2,a2,a3
    80001d00:	02107253          	fadd.d	ft4,ft0,ft1
    80001d04:	96ba                	add	a3,a3,a4
    80001d06:	973e                	add	a4,a4,a5
    80001d08:	187d                	addi	a6,a6,-1
    80001d0a:	ee081be3          	bnez	a6,80001c00 <renamewidth+0xee>
    80001d0e:	64a2                	ld	s1,8(sp)
    80001d10:	0141                	addi	sp,sp,16
    80001d12:	8082                	ret

0000000080001d14 <renamewidth_test>:
    80001d14:	6505                	lui	a0,0x1
    80001d16:	7179                	addi	sp,sp,-48
    80001d18:	bb850513          	addi	a0,a0,-1096 # bb8 <i+0xb98>
    80001d1c:	f406                	sd	ra,40(sp)
    80001d1e:	ac22                	fsd	fs0,24(sp)
    80001d20:	a826                	fsd	fs1,16(sp)
    80001d22:	a44a                	fsd	fs2,8(sp)
    80001d24:	a04e                	fsd	fs3,0(sp)
    80001d26:	22a504d3          	fmv.d	fs1,fa0
    80001d2a:	de9ff0ef          	jal	80001b12 <renamewidth>
    80001d2e:	011010ef          	jal	8000353e <uptime>
    80001d32:	d2150453          	fcvt.d.wu	fs0,a0
    80001d36:	6509                	lui	a0,0x2
    80001d38:	71050513          	addi	a0,a0,1808 # 2710 <i+0x26f0>
    80001d3c:	00002797          	auipc	a5,0x2
    80001d40:	ff47b987          	fld	fs3,-12(a5) # 80003d30 <am_keycode+0x218>
    80001d44:	00002797          	auipc	a5,0x2
    80001d48:	ff47b907          	fld	fs2,-12(a5) # 80003d38 <am_keycode+0x220>
    80001d4c:	dc7ff0ef          	jal	80001b12 <renamewidth>
    80001d50:	7ee010ef          	jal	8000353e <uptime>
    80001d54:	d21507d3          	fcvt.d.wu	fa5,a0
    80001d58:	13347453          	fmul.d	fs0,fs0,fs3
    80001d5c:	00002797          	auipc	a5,0x2
    80001d60:	fec7b707          	fld	fa4,-20(a5) # 80003d48 <am_keycode+0x230>
    80001d64:	1337f7d3          	fmul.d	fa5,fa5,fs3
    80001d68:	70a2                	ld	ra,40(sp)
    80001d6a:	2982                	fld	fs3,0(sp)
    80001d6c:	00002517          	auipc	a0,0x2
    80001d70:	ad450513          	addi	a0,a0,-1324 # 80003840 <__am_timer_read+0xd2>
    80001d74:	1b247453          	fdiv.d	fs0,fs0,fs2
    80001d78:	1b27f7d3          	fdiv.d	fa5,fa5,fs2
    80001d7c:	2922                	fld	fs2,8(sp)
    80001d7e:	0a87f7d3          	fsub.d	fa5,fa5,fs0
    80001d82:	2462                	fld	fs0,24(sp)
    80001d84:	1af777d3          	fdiv.d	fa5,fa4,fa5
    80001d88:	1a97f7d3          	fdiv.d	fa5,fa5,fs1
    80001d8c:	24c2                	fld	fs1,16(sp)
    80001d8e:	6145                	addi	sp,sp,48
    80001d90:	e20785d3          	fmv.x.d	a1,fa5
    80001d94:	7780106f          	j	8000350c <printf_>

0000000080001d98 <loadwidth>:
    80001d98:	1141                	addi	sp,sp,-16
    80001d9a:	e426                	sd	s1,8(sp)
    80001d9c:	87aa                	mv	a5,a0
    80001d9e:	872e                	mv	a4,a1
    80001da0:	6304                	ld	s1,0(a4)
    80001da2:	6708                	ld	a0,8(a4)
    80001da4:	6b0c                	ld	a1,16(a4)
    80001da6:	6f10                	ld	a2,24(a4)
    80001da8:	6304                	ld	s1,0(a4)
    80001daa:	6708                	ld	a0,8(a4)
    80001dac:	6b0c                	ld	a1,16(a4)
    80001dae:	6f10                	ld	a2,24(a4)
    80001db0:	6304                	ld	s1,0(a4)
    80001db2:	6708                	ld	a0,8(a4)
    80001db4:	6b0c                	ld	a1,16(a4)
    80001db6:	6f10                	ld	a2,24(a4)
    80001db8:	6304                	ld	s1,0(a4)
    80001dba:	6708                	ld	a0,8(a4)
    80001dbc:	6b0c                	ld	a1,16(a4)
    80001dbe:	6f10                	ld	a2,24(a4)
    80001dc0:	6304                	ld	s1,0(a4)
    80001dc2:	6708                	ld	a0,8(a4)
    80001dc4:	6b0c                	ld	a1,16(a4)
    80001dc6:	6f10                	ld	a2,24(a4)
    80001dc8:	6304                	ld	s1,0(a4)
    80001dca:	6708                	ld	a0,8(a4)
    80001dcc:	6b0c                	ld	a1,16(a4)
    80001dce:	6f10                	ld	a2,24(a4)
    80001dd0:	6304                	ld	s1,0(a4)
    80001dd2:	6708                	ld	a0,8(a4)
    80001dd4:	6b0c                	ld	a1,16(a4)
    80001dd6:	6f10                	ld	a2,24(a4)
    80001dd8:	6304                	ld	s1,0(a4)
    80001dda:	6708                	ld	a0,8(a4)
    80001ddc:	6b0c                	ld	a1,16(a4)
    80001dde:	6f10                	ld	a2,24(a4)
    80001de0:	6304                	ld	s1,0(a4)
    80001de2:	6708                	ld	a0,8(a4)
    80001de4:	6b0c                	ld	a1,16(a4)
    80001de6:	6f10                	ld	a2,24(a4)
    80001de8:	6304                	ld	s1,0(a4)
    80001dea:	6708                	ld	a0,8(a4)
    80001dec:	6b0c                	ld	a1,16(a4)
    80001dee:	6f10                	ld	a2,24(a4)
    80001df0:	6304                	ld	s1,0(a4)
    80001df2:	6708                	ld	a0,8(a4)
    80001df4:	6b0c                	ld	a1,16(a4)
    80001df6:	6f10                	ld	a2,24(a4)
    80001df8:	6304                	ld	s1,0(a4)
    80001dfa:	6708                	ld	a0,8(a4)
    80001dfc:	6b0c                	ld	a1,16(a4)
    80001dfe:	6f10                	ld	a2,24(a4)
    80001e00:	6304                	ld	s1,0(a4)
    80001e02:	6708                	ld	a0,8(a4)
    80001e04:	6b0c                	ld	a1,16(a4)
    80001e06:	6f10                	ld	a2,24(a4)
    80001e08:	6304                	ld	s1,0(a4)
    80001e0a:	6708                	ld	a0,8(a4)
    80001e0c:	6b0c                	ld	a1,16(a4)
    80001e0e:	6f10                	ld	a2,24(a4)
    80001e10:	6304                	ld	s1,0(a4)
    80001e12:	6708                	ld	a0,8(a4)
    80001e14:	6b0c                	ld	a1,16(a4)
    80001e16:	6f10                	ld	a2,24(a4)
    80001e18:	6304                	ld	s1,0(a4)
    80001e1a:	6708                	ld	a0,8(a4)
    80001e1c:	6b0c                	ld	a1,16(a4)
    80001e1e:	6f10                	ld	a2,24(a4)
    80001e20:	6304                	ld	s1,0(a4)
    80001e22:	6708                	ld	a0,8(a4)
    80001e24:	6b0c                	ld	a1,16(a4)
    80001e26:	6f10                	ld	a2,24(a4)
    80001e28:	6304                	ld	s1,0(a4)
    80001e2a:	6708                	ld	a0,8(a4)
    80001e2c:	6b0c                	ld	a1,16(a4)
    80001e2e:	6f10                	ld	a2,24(a4)
    80001e30:	6304                	ld	s1,0(a4)
    80001e32:	6708                	ld	a0,8(a4)
    80001e34:	6b0c                	ld	a1,16(a4)
    80001e36:	6f10                	ld	a2,24(a4)
    80001e38:	6304                	ld	s1,0(a4)
    80001e3a:	6708                	ld	a0,8(a4)
    80001e3c:	6b0c                	ld	a1,16(a4)
    80001e3e:	6f10                	ld	a2,24(a4)
    80001e40:	6304                	ld	s1,0(a4)
    80001e42:	6708                	ld	a0,8(a4)
    80001e44:	6b0c                	ld	a1,16(a4)
    80001e46:	6f10                	ld	a2,24(a4)
    80001e48:	6304                	ld	s1,0(a4)
    80001e4a:	6708                	ld	a0,8(a4)
    80001e4c:	6b0c                	ld	a1,16(a4)
    80001e4e:	6f10                	ld	a2,24(a4)
    80001e50:	6304                	ld	s1,0(a4)
    80001e52:	6708                	ld	a0,8(a4)
    80001e54:	6b0c                	ld	a1,16(a4)
    80001e56:	6f10                	ld	a2,24(a4)
    80001e58:	6304                	ld	s1,0(a4)
    80001e5a:	6708                	ld	a0,8(a4)
    80001e5c:	6b0c                	ld	a1,16(a4)
    80001e5e:	6f10                	ld	a2,24(a4)
    80001e60:	6304                	ld	s1,0(a4)
    80001e62:	6708                	ld	a0,8(a4)
    80001e64:	6b0c                	ld	a1,16(a4)
    80001e66:	6f10                	ld	a2,24(a4)
    80001e68:	17fd                	addi	a5,a5,-1
    80001e6a:	fb9d                	bnez	a5,80001da0 <loadwidth+0x8>
    80001e6c:	64a2                	ld	s1,8(sp)
    80001e6e:	0141                	addi	sp,sp,16
    80001e70:	8082                	ret

0000000080001e72 <loadwidth_test>:
    80001e72:	7119                	addi	sp,sp,-128
    80001e74:	6505                	lui	a0,0x1
    80001e76:	858a                	mv	a1,sp
    80001e78:	bb850513          	addi	a0,a0,-1096 # bb8 <i+0xb98>
    80001e7c:	fc86                	sd	ra,120(sp)
    80001e7e:	b4a2                	fsd	fs0,104(sp)
    80001e80:	b0a6                	fsd	fs1,96(sp)
    80001e82:	acca                	fsd	fs2,88(sp)
    80001e84:	a8ce                	fsd	fs3,80(sp)
    80001e86:	22a504d3          	fmv.d	fs1,fa0
    80001e8a:	f0fff0ef          	jal	80001d98 <loadwidth>
    80001e8e:	6b0010ef          	jal	8000353e <uptime>
    80001e92:	d2150453          	fcvt.d.wu	fs0,a0
    80001e96:	6509                	lui	a0,0x2
    80001e98:	858a                	mv	a1,sp
    80001e9a:	71050513          	addi	a0,a0,1808 # 2710 <i+0x26f0>
    80001e9e:	00002797          	auipc	a5,0x2
    80001ea2:	e927b987          	fld	fs3,-366(a5) # 80003d30 <am_keycode+0x218>
    80001ea6:	00002797          	auipc	a5,0x2
    80001eaa:	e927b907          	fld	fs2,-366(a5) # 80003d38 <am_keycode+0x220>
    80001eae:	eebff0ef          	jal	80001d98 <loadwidth>
    80001eb2:	68c010ef          	jal	8000353e <uptime>
    80001eb6:	d21507d3          	fcvt.d.wu	fa5,a0
    80001eba:	13347453          	fmul.d	fs0,fs0,fs3
    80001ebe:	00002797          	auipc	a5,0x2
    80001ec2:	e8a7b707          	fld	fa4,-374(a5) # 80003d48 <am_keycode+0x230>
    80001ec6:	1337f7d3          	fmul.d	fa5,fa5,fs3
    80001eca:	00002517          	auipc	a0,0x2
    80001ece:	98e50513          	addi	a0,a0,-1650 # 80003858 <__am_timer_read+0xea>
    80001ed2:	1b247453          	fdiv.d	fs0,fs0,fs2
    80001ed6:	1b27f7d3          	fdiv.d	fa5,fa5,fs2
    80001eda:	0a87f7d3          	fsub.d	fa5,fa5,fs0
    80001ede:	1af777d3          	fdiv.d	fa5,fa4,fa5
    80001ee2:	1a97f7d3          	fdiv.d	fa5,fa5,fs1
    80001ee6:	e20785d3          	fmv.x.d	a1,fa5
    80001eea:	622010ef          	jal	8000350c <printf_>
    80001eee:	70e6                	ld	ra,120(sp)
    80001ef0:	3426                	fld	fs0,104(sp)
    80001ef2:	3486                	fld	fs1,96(sp)
    80001ef4:	2966                	fld	fs2,88(sp)
    80001ef6:	29c6                	fld	fs3,80(sp)
    80001ef8:	6109                	addi	sp,sp,128
    80001efa:	8082                	ret

0000000080001efc <storewidth>:
    80001efc:	1141                	addi	sp,sp,-16
    80001efe:	e426                	sd	s1,8(sp)
    80001f00:	87aa                	mv	a5,a0
    80001f02:	872e                	mv	a4,a1
    80001f04:	00000013          	nop
    80001f08:	00000013          	nop
    80001f0c:	00000013          	nop
    80001f10:	e304                	sd	s1,0(a4)
    80001f12:	e708                	sd	a0,8(a4)
    80001f14:	eb0c                	sd	a1,16(a4)
    80001f16:	ef10                	sd	a2,24(a4)
    80001f18:	e304                	sd	s1,0(a4)
    80001f1a:	e708                	sd	a0,8(a4)
    80001f1c:	eb0c                	sd	a1,16(a4)
    80001f1e:	ef10                	sd	a2,24(a4)
    80001f20:	e304                	sd	s1,0(a4)
    80001f22:	e708                	sd	a0,8(a4)
    80001f24:	eb0c                	sd	a1,16(a4)
    80001f26:	ef10                	sd	a2,24(a4)
    80001f28:	e304                	sd	s1,0(a4)
    80001f2a:	e708                	sd	a0,8(a4)
    80001f2c:	eb0c                	sd	a1,16(a4)
    80001f2e:	ef10                	sd	a2,24(a4)
    80001f30:	e304                	sd	s1,0(a4)
    80001f32:	e708                	sd	a0,8(a4)
    80001f34:	eb0c                	sd	a1,16(a4)
    80001f36:	ef10                	sd	a2,24(a4)
    80001f38:	e304                	sd	s1,0(a4)
    80001f3a:	e708                	sd	a0,8(a4)
    80001f3c:	eb0c                	sd	a1,16(a4)
    80001f3e:	ef10                	sd	a2,24(a4)
    80001f40:	e304                	sd	s1,0(a4)
    80001f42:	e708                	sd	a0,8(a4)
    80001f44:	eb0c                	sd	a1,16(a4)
    80001f46:	ef10                	sd	a2,24(a4)
    80001f48:	e304                	sd	s1,0(a4)
    80001f4a:	e708                	sd	a0,8(a4)
    80001f4c:	eb0c                	sd	a1,16(a4)
    80001f4e:	ef10                	sd	a2,24(a4)
    80001f50:	e304                	sd	s1,0(a4)
    80001f52:	e708                	sd	a0,8(a4)
    80001f54:	eb0c                	sd	a1,16(a4)
    80001f56:	ef10                	sd	a2,24(a4)
    80001f58:	e304                	sd	s1,0(a4)
    80001f5a:	e708                	sd	a0,8(a4)
    80001f5c:	eb0c                	sd	a1,16(a4)
    80001f5e:	ef10                	sd	a2,24(a4)
    80001f60:	e304                	sd	s1,0(a4)
    80001f62:	e708                	sd	a0,8(a4)
    80001f64:	eb0c                	sd	a1,16(a4)
    80001f66:	ef10                	sd	a2,24(a4)
    80001f68:	e304                	sd	s1,0(a4)
    80001f6a:	e708                	sd	a0,8(a4)
    80001f6c:	eb0c                	sd	a1,16(a4)
    80001f6e:	ef10                	sd	a2,24(a4)
    80001f70:	e304                	sd	s1,0(a4)
    80001f72:	e708                	sd	a0,8(a4)
    80001f74:	eb0c                	sd	a1,16(a4)
    80001f76:	ef10                	sd	a2,24(a4)
    80001f78:	e304                	sd	s1,0(a4)
    80001f7a:	e708                	sd	a0,8(a4)
    80001f7c:	eb0c                	sd	a1,16(a4)
    80001f7e:	ef10                	sd	a2,24(a4)
    80001f80:	e304                	sd	s1,0(a4)
    80001f82:	e708                	sd	a0,8(a4)
    80001f84:	eb0c                	sd	a1,16(a4)
    80001f86:	ef10                	sd	a2,24(a4)
    80001f88:	e304                	sd	s1,0(a4)
    80001f8a:	e708                	sd	a0,8(a4)
    80001f8c:	eb0c                	sd	a1,16(a4)
    80001f8e:	ef10                	sd	a2,24(a4)
    80001f90:	e304                	sd	s1,0(a4)
    80001f92:	e708                	sd	a0,8(a4)
    80001f94:	eb0c                	sd	a1,16(a4)
    80001f96:	ef10                	sd	a2,24(a4)
    80001f98:	e304                	sd	s1,0(a4)
    80001f9a:	e708                	sd	a0,8(a4)
    80001f9c:	eb0c                	sd	a1,16(a4)
    80001f9e:	ef10                	sd	a2,24(a4)
    80001fa0:	e304                	sd	s1,0(a4)
    80001fa2:	e708                	sd	a0,8(a4)
    80001fa4:	eb0c                	sd	a1,16(a4)
    80001fa6:	ef10                	sd	a2,24(a4)
    80001fa8:	e304                	sd	s1,0(a4)
    80001faa:	e708                	sd	a0,8(a4)
    80001fac:	eb0c                	sd	a1,16(a4)
    80001fae:	ef10                	sd	a2,24(a4)
    80001fb0:	e304                	sd	s1,0(a4)
    80001fb2:	e708                	sd	a0,8(a4)
    80001fb4:	eb0c                	sd	a1,16(a4)
    80001fb6:	ef10                	sd	a2,24(a4)
    80001fb8:	e304                	sd	s1,0(a4)
    80001fba:	e708                	sd	a0,8(a4)
    80001fbc:	eb0c                	sd	a1,16(a4)
    80001fbe:	ef10                	sd	a2,24(a4)
    80001fc0:	e304                	sd	s1,0(a4)
    80001fc2:	e708                	sd	a0,8(a4)
    80001fc4:	eb0c                	sd	a1,16(a4)
    80001fc6:	ef10                	sd	a2,24(a4)
    80001fc8:	e304                	sd	s1,0(a4)
    80001fca:	e708                	sd	a0,8(a4)
    80001fcc:	eb0c                	sd	a1,16(a4)
    80001fce:	ef10                	sd	a2,24(a4)
    80001fd0:	e304                	sd	s1,0(a4)
    80001fd2:	e708                	sd	a0,8(a4)
    80001fd4:	eb0c                	sd	a1,16(a4)
    80001fd6:	ef10                	sd	a2,24(a4)
    80001fd8:	17fd                	addi	a5,a5,-1
    80001fda:	fb9d                	bnez	a5,80001f10 <storewidth+0x14>
    80001fdc:	64a2                	ld	s1,8(sp)
    80001fde:	0141                	addi	sp,sp,16
    80001fe0:	8082                	ret

0000000080001fe2 <storewidth_test>:
    80001fe2:	7119                	addi	sp,sp,-128
    80001fe4:	6505                	lui	a0,0x1
    80001fe6:	858a                	mv	a1,sp
    80001fe8:	bb850513          	addi	a0,a0,-1096 # bb8 <i+0xb98>
    80001fec:	fc86                	sd	ra,120(sp)
    80001fee:	b4a2                	fsd	fs0,104(sp)
    80001ff0:	b0a6                	fsd	fs1,96(sp)
    80001ff2:	acca                	fsd	fs2,88(sp)
    80001ff4:	a8ce                	fsd	fs3,80(sp)
    80001ff6:	22a504d3          	fmv.d	fs1,fa0
    80001ffa:	f03ff0ef          	jal	80001efc <storewidth>
    80001ffe:	540010ef          	jal	8000353e <uptime>
    80002002:	d2150453          	fcvt.d.wu	fs0,a0
    80002006:	6509                	lui	a0,0x2
    80002008:	858a                	mv	a1,sp
    8000200a:	71050513          	addi	a0,a0,1808 # 2710 <i+0x26f0>
    8000200e:	00002797          	auipc	a5,0x2
    80002012:	d227b987          	fld	fs3,-734(a5) # 80003d30 <am_keycode+0x218>
    80002016:	00002797          	auipc	a5,0x2
    8000201a:	d227b907          	fld	fs2,-734(a5) # 80003d38 <am_keycode+0x220>
    8000201e:	edfff0ef          	jal	80001efc <storewidth>
    80002022:	51c010ef          	jal	8000353e <uptime>
    80002026:	d21507d3          	fcvt.d.wu	fa5,a0
    8000202a:	13347453          	fmul.d	fs0,fs0,fs3
    8000202e:	00002797          	auipc	a5,0x2
    80002032:	d1a7b707          	fld	fa4,-742(a5) # 80003d48 <am_keycode+0x230>
    80002036:	1337f7d3          	fmul.d	fa5,fa5,fs3
    8000203a:	00002517          	auipc	a0,0x2
    8000203e:	82e50513          	addi	a0,a0,-2002 # 80003868 <__am_timer_read+0xfa>
    80002042:	1b247453          	fdiv.d	fs0,fs0,fs2
    80002046:	1b27f7d3          	fdiv.d	fa5,fa5,fs2
    8000204a:	0a87f7d3          	fsub.d	fa5,fa5,fs0
    8000204e:	1af777d3          	fdiv.d	fa5,fa4,fa5
    80002052:	1a97f7d3          	fdiv.d	fa5,fa5,fs1
    80002056:	e20785d3          	fmv.x.d	a1,fa5
    8000205a:	4b2010ef          	jal	8000350c <printf_>
    8000205e:	70e6                	ld	ra,120(sp)
    80002060:	3426                	fld	fs0,104(sp)
    80002062:	3486                	fld	fs1,96(sp)
    80002064:	2966                	fld	fs2,88(sp)
    80002066:	29c6                	fld	fs3,80(sp)
    80002068:	6109                	addi	sp,sp,128
    8000206a:	8082                	ret

000000008000206c <aguwidth>:
    8000206c:	1141                	addi	sp,sp,-16
    8000206e:	e426                	sd	s1,8(sp)
    80002070:	87aa                	mv	a5,a0
    80002072:	0001                	nop
    80002074:	00000013          	nop
    80002078:	c184                	sw	s1,0(a1)
    8000207a:	4208                	lw	a0,0(a2)
    8000207c:	c184                	sw	s1,0(a1)
    8000207e:	4208                	lw	a0,0(a2)
    80002080:	c184                	sw	s1,0(a1)
    80002082:	4208                	lw	a0,0(a2)
    80002084:	c184                	sw	s1,0(a1)
    80002086:	4208                	lw	a0,0(a2)
    80002088:	c184                	sw	s1,0(a1)
    8000208a:	4208                	lw	a0,0(a2)
    8000208c:	c184                	sw	s1,0(a1)
    8000208e:	4208                	lw	a0,0(a2)
    80002090:	c184                	sw	s1,0(a1)
    80002092:	4208                	lw	a0,0(a2)
    80002094:	c184                	sw	s1,0(a1)
    80002096:	4208                	lw	a0,0(a2)
    80002098:	c184                	sw	s1,0(a1)
    8000209a:	4208                	lw	a0,0(a2)
    8000209c:	c184                	sw	s1,0(a1)
    8000209e:	4208                	lw	a0,0(a2)
    800020a0:	c184                	sw	s1,0(a1)
    800020a2:	4208                	lw	a0,0(a2)
    800020a4:	c184                	sw	s1,0(a1)
    800020a6:	4208                	lw	a0,0(a2)
    800020a8:	c184                	sw	s1,0(a1)
    800020aa:	4208                	lw	a0,0(a2)
    800020ac:	c184                	sw	s1,0(a1)
    800020ae:	4208                	lw	a0,0(a2)
    800020b0:	c184                	sw	s1,0(a1)
    800020b2:	4208                	lw	a0,0(a2)
    800020b4:	c184                	sw	s1,0(a1)
    800020b6:	4208                	lw	a0,0(a2)
    800020b8:	c184                	sw	s1,0(a1)
    800020ba:	4208                	lw	a0,0(a2)
    800020bc:	c184                	sw	s1,0(a1)
    800020be:	4208                	lw	a0,0(a2)
    800020c0:	c184                	sw	s1,0(a1)
    800020c2:	4208                	lw	a0,0(a2)
    800020c4:	c184                	sw	s1,0(a1)
    800020c6:	4208                	lw	a0,0(a2)
    800020c8:	c184                	sw	s1,0(a1)
    800020ca:	4208                	lw	a0,0(a2)
    800020cc:	c184                	sw	s1,0(a1)
    800020ce:	4208                	lw	a0,0(a2)
    800020d0:	c184                	sw	s1,0(a1)
    800020d2:	4208                	lw	a0,0(a2)
    800020d4:	c184                	sw	s1,0(a1)
    800020d6:	4208                	lw	a0,0(a2)
    800020d8:	c184                	sw	s1,0(a1)
    800020da:	4208                	lw	a0,0(a2)
    800020dc:	c184                	sw	s1,0(a1)
    800020de:	4208                	lw	a0,0(a2)
    800020e0:	c184                	sw	s1,0(a1)
    800020e2:	4208                	lw	a0,0(a2)
    800020e4:	c184                	sw	s1,0(a1)
    800020e6:	4208                	lw	a0,0(a2)
    800020e8:	c184                	sw	s1,0(a1)
    800020ea:	4208                	lw	a0,0(a2)
    800020ec:	c184                	sw	s1,0(a1)
    800020ee:	4208                	lw	a0,0(a2)
    800020f0:	c184                	sw	s1,0(a1)
    800020f2:	4208                	lw	a0,0(a2)
    800020f4:	c184                	sw	s1,0(a1)
    800020f6:	4208                	lw	a0,0(a2)
    800020f8:	c184                	sw	s1,0(a1)
    800020fa:	4208                	lw	a0,0(a2)
    800020fc:	c184                	sw	s1,0(a1)
    800020fe:	4208                	lw	a0,0(a2)
    80002100:	c184                	sw	s1,0(a1)
    80002102:	4208                	lw	a0,0(a2)
    80002104:	c184                	sw	s1,0(a1)
    80002106:	4208                	lw	a0,0(a2)
    80002108:	c184                	sw	s1,0(a1)
    8000210a:	4208                	lw	a0,0(a2)
    8000210c:	c184                	sw	s1,0(a1)
    8000210e:	4208                	lw	a0,0(a2)
    80002110:	c184                	sw	s1,0(a1)
    80002112:	4208                	lw	a0,0(a2)
    80002114:	c184                	sw	s1,0(a1)
    80002116:	4208                	lw	a0,0(a2)
    80002118:	c184                	sw	s1,0(a1)
    8000211a:	4208                	lw	a0,0(a2)
    8000211c:	c184                	sw	s1,0(a1)
    8000211e:	4208                	lw	a0,0(a2)
    80002120:	c184                	sw	s1,0(a1)
    80002122:	4208                	lw	a0,0(a2)
    80002124:	c184                	sw	s1,0(a1)
    80002126:	4208                	lw	a0,0(a2)
    80002128:	c184                	sw	s1,0(a1)
    8000212a:	4208                	lw	a0,0(a2)
    8000212c:	c184                	sw	s1,0(a1)
    8000212e:	4208                	lw	a0,0(a2)
    80002130:	c184                	sw	s1,0(a1)
    80002132:	4208                	lw	a0,0(a2)
    80002134:	c184                	sw	s1,0(a1)
    80002136:	4208                	lw	a0,0(a2)
    80002138:	c184                	sw	s1,0(a1)
    8000213a:	4208                	lw	a0,0(a2)
    8000213c:	c184                	sw	s1,0(a1)
    8000213e:	4208                	lw	a0,0(a2)
    80002140:	c184                	sw	s1,0(a1)
    80002142:	4208                	lw	a0,0(a2)
    80002144:	c184                	sw	s1,0(a1)
    80002146:	4208                	lw	a0,0(a2)
    80002148:	c184                	sw	s1,0(a1)
    8000214a:	4208                	lw	a0,0(a2)
    8000214c:	c184                	sw	s1,0(a1)
    8000214e:	4208                	lw	a0,0(a2)
    80002150:	c184                	sw	s1,0(a1)
    80002152:	4208                	lw	a0,0(a2)
    80002154:	c184                	sw	s1,0(a1)
    80002156:	4208                	lw	a0,0(a2)
    80002158:	c184                	sw	s1,0(a1)
    8000215a:	4208                	lw	a0,0(a2)
    8000215c:	c184                	sw	s1,0(a1)
    8000215e:	4208                	lw	a0,0(a2)
    80002160:	c184                	sw	s1,0(a1)
    80002162:	4208                	lw	a0,0(a2)
    80002164:	c184                	sw	s1,0(a1)
    80002166:	4208                	lw	a0,0(a2)
    80002168:	c184                	sw	s1,0(a1)
    8000216a:	4208                	lw	a0,0(a2)
    8000216c:	c184                	sw	s1,0(a1)
    8000216e:	4208                	lw	a0,0(a2)
    80002170:	c184                	sw	s1,0(a1)
    80002172:	4208                	lw	a0,0(a2)
    80002174:	c184                	sw	s1,0(a1)
    80002176:	4208                	lw	a0,0(a2)
    80002178:	c184                	sw	s1,0(a1)
    8000217a:	4208                	lw	a0,0(a2)
    8000217c:	c184                	sw	s1,0(a1)
    8000217e:	4208                	lw	a0,0(a2)
    80002180:	c184                	sw	s1,0(a1)
    80002182:	4208                	lw	a0,0(a2)
    80002184:	c184                	sw	s1,0(a1)
    80002186:	4208                	lw	a0,0(a2)
    80002188:	c184                	sw	s1,0(a1)
    8000218a:	4208                	lw	a0,0(a2)
    8000218c:	c184                	sw	s1,0(a1)
    8000218e:	4208                	lw	a0,0(a2)
    80002190:	c184                	sw	s1,0(a1)
    80002192:	4208                	lw	a0,0(a2)
    80002194:	c184                	sw	s1,0(a1)
    80002196:	4208                	lw	a0,0(a2)
    80002198:	c184                	sw	s1,0(a1)
    8000219a:	4208                	lw	a0,0(a2)
    8000219c:	c184                	sw	s1,0(a1)
    8000219e:	4208                	lw	a0,0(a2)
    800021a0:	c184                	sw	s1,0(a1)
    800021a2:	4208                	lw	a0,0(a2)
    800021a4:	c184                	sw	s1,0(a1)
    800021a6:	4208                	lw	a0,0(a2)
    800021a8:	c184                	sw	s1,0(a1)
    800021aa:	4208                	lw	a0,0(a2)
    800021ac:	c184                	sw	s1,0(a1)
    800021ae:	4208                	lw	a0,0(a2)
    800021b0:	c184                	sw	s1,0(a1)
    800021b2:	4208                	lw	a0,0(a2)
    800021b4:	c184                	sw	s1,0(a1)
    800021b6:	4208                	lw	a0,0(a2)
    800021b8:	c184                	sw	s1,0(a1)
    800021ba:	4208                	lw	a0,0(a2)
    800021bc:	c184                	sw	s1,0(a1)
    800021be:	4208                	lw	a0,0(a2)
    800021c0:	c184                	sw	s1,0(a1)
    800021c2:	4208                	lw	a0,0(a2)
    800021c4:	c184                	sw	s1,0(a1)
    800021c6:	4208                	lw	a0,0(a2)
    800021c8:	c184                	sw	s1,0(a1)
    800021ca:	4208                	lw	a0,0(a2)
    800021cc:	c184                	sw	s1,0(a1)
    800021ce:	4208                	lw	a0,0(a2)
    800021d0:	c184                	sw	s1,0(a1)
    800021d2:	4208                	lw	a0,0(a2)
    800021d4:	c184                	sw	s1,0(a1)
    800021d6:	4208                	lw	a0,0(a2)
    800021d8:	c184                	sw	s1,0(a1)
    800021da:	4208                	lw	a0,0(a2)
    800021dc:	c184                	sw	s1,0(a1)
    800021de:	4208                	lw	a0,0(a2)
    800021e0:	c184                	sw	s1,0(a1)
    800021e2:	4208                	lw	a0,0(a2)
    800021e4:	c184                	sw	s1,0(a1)
    800021e6:	4208                	lw	a0,0(a2)
    800021e8:	c184                	sw	s1,0(a1)
    800021ea:	4208                	lw	a0,0(a2)
    800021ec:	c184                	sw	s1,0(a1)
    800021ee:	4208                	lw	a0,0(a2)
    800021f0:	c184                	sw	s1,0(a1)
    800021f2:	4208                	lw	a0,0(a2)
    800021f4:	c184                	sw	s1,0(a1)
    800021f6:	4208                	lw	a0,0(a2)
    800021f8:	c184                	sw	s1,0(a1)
    800021fa:	4208                	lw	a0,0(a2)
    800021fc:	c184                	sw	s1,0(a1)
    800021fe:	4208                	lw	a0,0(a2)
    80002200:	c184                	sw	s1,0(a1)
    80002202:	4208                	lw	a0,0(a2)
    80002204:	c184                	sw	s1,0(a1)
    80002206:	4208                	lw	a0,0(a2)
    80002208:	17fd                	addi	a5,a5,-1
    8000220a:	e60797e3          	bnez	a5,80002078 <aguwidth+0xc>
    8000220e:	64a2                	ld	s1,8(sp)
    80002210:	0141                	addi	sp,sp,16
    80002212:	8082                	ret

0000000080002214 <aguwidth_test>:
    80002214:	7155                	addi	sp,sp,-208
    80002216:	6505                	lui	a0,0x1
    80002218:	0890                	addi	a2,sp,80
    8000221a:	858a                	mv	a1,sp
    8000221c:	bb850513          	addi	a0,a0,-1096 # bb8 <i+0xb98>
    80002220:	e586                	sd	ra,200(sp)
    80002222:	bd22                	fsd	fs0,184(sp)
    80002224:	b926                	fsd	fs1,176(sp)
    80002226:	b54a                	fsd	fs2,168(sp)
    80002228:	b14e                	fsd	fs3,160(sp)
    8000222a:	22a504d3          	fmv.d	fs1,fa0
    8000222e:	e3fff0ef          	jal	8000206c <aguwidth>
    80002232:	30c010ef          	jal	8000353e <uptime>
    80002236:	d2150453          	fcvt.d.wu	fs0,a0
    8000223a:	6509                	lui	a0,0x2
    8000223c:	0890                	addi	a2,sp,80
    8000223e:	858a                	mv	a1,sp
    80002240:	71050513          	addi	a0,a0,1808 # 2710 <i+0x26f0>
    80002244:	00002797          	auipc	a5,0x2
    80002248:	aec7b987          	fld	fs3,-1300(a5) # 80003d30 <am_keycode+0x218>
    8000224c:	00002797          	auipc	a5,0x2
    80002250:	aec7b907          	fld	fs2,-1300(a5) # 80003d38 <am_keycode+0x220>
    80002254:	e19ff0ef          	jal	8000206c <aguwidth>
    80002258:	2e6010ef          	jal	8000353e <uptime>
    8000225c:	d21507d3          	fcvt.d.wu	fa5,a0
    80002260:	13347453          	fmul.d	fs0,fs0,fs3
    80002264:	00002797          	auipc	a5,0x2
    80002268:	aec7b707          	fld	fa4,-1300(a5) # 80003d50 <am_keycode+0x238>
    8000226c:	1337f7d3          	fmul.d	fa5,fa5,fs3
    80002270:	00001517          	auipc	a0,0x1
    80002274:	61050513          	addi	a0,a0,1552 # 80003880 <__am_timer_read+0x112>
    80002278:	1b247453          	fdiv.d	fs0,fs0,fs2
    8000227c:	1b27f7d3          	fdiv.d	fa5,fa5,fs2
    80002280:	0a87f7d3          	fsub.d	fa5,fa5,fs0
    80002284:	1af777d3          	fdiv.d	fa5,fa4,fa5
    80002288:	1a97f7d3          	fdiv.d	fa5,fa5,fs1
    8000228c:	e20785d3          	fmv.x.d	a1,fa5
    80002290:	27c010ef          	jal	8000350c <printf_>
    80002294:	60ae                	ld	ra,200(sp)
    80002296:	346a                	fld	fs0,184(sp)
    80002298:	34ca                	fld	fs1,176(sp)
    8000229a:	392a                	fld	fs2,168(sp)
    8000229c:	398a                	fld	fs3,160(sp)
    8000229e:	6169                	addi	sp,sp,208
    800022a0:	8082                	ret
	...

Disassembly of section .text.startup:

00000000800022da <main>:
    800022da:	1101                	addi	sp,sp,-32
    800022dc:	a422                	fsd	fs0,8(sp)
    800022de:	00002797          	auipc	a5,0x2
    800022e2:	a7a7b407          	fld	fs0,-1414(a5) # 80003d58 <am_keycode+0x240>
    800022e6:	ec06                	sd	ra,24(sp)
    800022e8:	22840553          	fmv.d	fa0,fs0
    800022ec:	e64fe0ef          	jal	80000950 <aluwidth_test>
    800022f0:	22840553          	fmv.d	fa0,fs0
    800022f4:	fe0fe0ef          	jal	80000ad4 <nopwidth_test>
    800022f8:	22840553          	fmv.d	fa0,fs0
    800022fc:	a03fe0ef          	jal	80000cfe <brwidth_test>
    80002300:	22840553          	fmv.d	fa0,fs0
    80002304:	f8aff0ef          	jal	80001a8e <fpuwidth_test>
    80002308:	22840553          	fmv.d	fa0,fs0
    8000230c:	a09ff0ef          	jal	80001d14 <renamewidth_test>
    80002310:	22840553          	fmv.d	fa0,fs0
    80002314:	b5fff0ef          	jal	80001e72 <loadwidth_test>
    80002318:	22840553          	fmv.d	fa0,fs0
    8000231c:	cc7ff0ef          	jal	80001fe2 <storewidth_test>
    80002320:	22840553          	fmv.d	fa0,fs0
    80002324:	ef1ff0ef          	jal	80002214 <aguwidth_test>
    80002328:	60e2                	ld	ra,24(sp)
    8000232a:	2422                	fld	fs0,8(sp)
    8000232c:	4501                	li	a0,0
    8000232e:	6105                	addi	sp,sp,32
    80002330:	8082                	ret

Disassembly of section .text._putc:

0000000080002332 <_putc>:
    80002332:	a081                	j	80002372 <__am_uartlite_putchar>

Disassembly of section .text._halt:

0000000080002334 <_halt>:
    80002334:	1141                	addi	sp,sp,-16
    80002336:	e406                	sd	ra,8(sp)
    80002338:	85aa                	mv	a1,a0
    8000233a:	852a                	mv	a0,a0
    8000233c:	0005006b          	.word	0x0005006b
    80002340:	00001517          	auipc	a0,0x1
    80002344:	55050513          	addi	a0,a0,1360 # 80003890 <__am_timer_read+0x122>
    80002348:	1c4010ef          	jal	8000350c <printf_>
    8000234c:	a001                	j	8000234c <_halt+0x18>

Disassembly of section .text._trm_init:

000000008000234e <_trm_init>:
    8000234e:	1141                	addi	sp,sp,-16
    80002350:	e406                	sd	ra,8(sp)
    80002352:	014000ef          	jal	80002366 <__am_init_uartlite>
    80002356:	00001517          	auipc	a0,0x1
    8000235a:	5d350513          	addi	a0,a0,1491 # 80003929 <__am_mainargs>
    8000235e:	f7dff0ef          	jal	800022da <main>
    80002362:	fd3ff0ef          	jal	80002334 <_halt>

Disassembly of section .text.__am_init_uartlite:

0000000080002366 <__am_init_uartlite>:
    80002366:	406007b7          	lui	a5,0x40600
    8000236a:	470d                	li	a4,3
    8000236c:	00e78623          	sb	a4,12(a5) # 4060000c <i+0x405fffec>
    80002370:	8082                	ret

Disassembly of section .text.__am_uartlite_putchar:

0000000080002372 <__am_uartlite_putchar>:
    80002372:	47a9                	li	a5,10
    80002374:	00f50e63          	beq	a0,a5,80002390 <__am_uartlite_putchar+0x1e>
    80002378:	40600737          	lui	a4,0x40600
    8000237c:	0721                	addi	a4,a4,8 # 40600008 <i+0x405fffe8>
    8000237e:	00074783          	lbu	a5,0(a4)
    80002382:	8ba1                	andi	a5,a5,8
    80002384:	ffed                	bnez	a5,8000237e <__am_uartlite_putchar+0xc>
    80002386:	406007b7          	lui	a5,0x40600
    8000238a:	00a78223          	sb	a0,4(a5) # 40600004 <i+0x405fffe4>
    8000238e:	8082                	ret
    80002390:	40600737          	lui	a4,0x40600
    80002394:	0721                	addi	a4,a4,8 # 40600008 <i+0x405fffe8>
    80002396:	00074783          	lbu	a5,0(a4)
    8000239a:	8ba1                	andi	a5,a5,8
    8000239c:	ffed                	bnez	a5,80002396 <__am_uartlite_putchar+0x24>
    8000239e:	406007b7          	lui	a5,0x40600
    800023a2:	4735                	li	a4,13
    800023a4:	00e78223          	sb	a4,4(a5) # 40600004 <i+0x405fffe4>
    800023a8:	bfc1                	j	80002378 <__am_uartlite_putchar+0x6>

Disassembly of section .text.__am_uartlite_getchar:

00000000800023aa <__am_uartlite_getchar>:
    800023aa:	406007b7          	lui	a5,0x40600
    800023ae:	07a1                	addi	a5,a5,8 # 40600008 <i+0x405fffe8>
    800023b0:	0007c783          	lbu	a5,0(a5)
    800023b4:	40600737          	lui	a4,0x40600
    800023b8:	4501                	li	a0,0
    800023ba:	8b85                	andi	a5,a5,1
    800023bc:	e391                	bnez	a5,800023c0 <__am_uartlite_getchar+0x16>
    800023be:	8082                	ret
    800023c0:	00074503          	lbu	a0,0(a4) # 40600000 <i+0x405fffe0>
    800023c4:	8082                	ret

Disassembly of section .text._out_null:

00000000800023c6 <_out_null>:
    800023c6:	8082                	ret

Disassembly of section .text._out_rev:

00000000800023c8 <_out_rev>:
    800023c8:	711d                	addi	sp,sp,-96
    800023ca:	e8a2                	sd	s0,80(sp)
    800023cc:	fc4e                	sd	s3,56(sp)
    800023ce:	f852                	sd	s4,48(sp)
    800023d0:	f456                	sd	s5,40(sp)
    800023d2:	f05a                	sd	s6,32(sp)
    800023d4:	ec5e                	sd	s7,24(sp)
    800023d6:	e862                	sd	s8,16(sp)
    800023d8:	e466                	sd	s9,8(sp)
    800023da:	ec86                	sd	ra,88(sp)
    800023dc:	8cc6                	mv	s9,a7
    800023de:	e4a6                	sd	s1,72(sp)
    800023e0:	e0ca                	sd	s2,64(sp)
    800023e2:	0038f893          	andi	a7,a7,3
    800023e6:	89aa                	mv	s3,a0
    800023e8:	8a2e                	mv	s4,a1
    800023ea:	8b32                	mv	s6,a2
    800023ec:	8ab6                	mv	s5,a3
    800023ee:	8bba                	mv	s7,a4
    800023f0:	843e                	mv	s0,a5
    800023f2:	8c42                	mv	s8,a6
    800023f4:	08089363          	bnez	a7,8000247a <_out_rev+0xb2>
    800023f8:	080807bb          	zext.w	a5,a6
    800023fc:	40878933          	sub	s2,a5,s0
    80002400:	9932                	add	s2,s2,a2
    80002402:	84b2                	mv	s1,a2
    80002404:	06f47f63          	bgeu	s0,a5,80002482 <_out_rev+0xba>
    80002408:	8626                	mv	a2,s1
    8000240a:	86d6                	mv	a3,s5
    8000240c:	0485                	addi	s1,s1,1
    8000240e:	85d2                	mv	a1,s4
    80002410:	02000513          	li	a0,32
    80002414:	9982                	jalr	s3
    80002416:	ff2499e3          	bne	s1,s2,80002408 <_out_rev+0x40>
    8000241a:	c031                	beqz	s0,8000245e <_out_rev+0x96>
    8000241c:	9922                	add	s2,s2,s0
    8000241e:	40890633          	sub	a2,s2,s0
    80002422:	147d                	addi	s0,s0,-1
    80002424:	008b87b3          	add	a5,s7,s0
    80002428:	0007c503          	lbu	a0,0(a5)
    8000242c:	86d6                	mv	a3,s5
    8000242e:	85d2                	mv	a1,s4
    80002430:	84ca                	mv	s1,s2
    80002432:	9982                	jalr	s3
    80002434:	f46d                	bnez	s0,8000241e <_out_rev+0x56>
    80002436:	002cfc93          	andi	s9,s9,2
    8000243a:	020c8263          	beqz	s9,8000245e <_out_rev+0x96>
    8000243e:	41648b33          	sub	s6,s1,s6
    80002442:	080c0c3b          	zext.w	s8,s8
    80002446:	018b7c63          	bgeu	s6,s8,8000245e <_out_rev+0x96>
    8000244a:	8626                	mv	a2,s1
    8000244c:	86d6                	mv	a3,s5
    8000244e:	85d2                	mv	a1,s4
    80002450:	02000513          	li	a0,32
    80002454:	0b05                	addi	s6,s6,1
    80002456:	0485                	addi	s1,s1,1
    80002458:	9982                	jalr	s3
    8000245a:	ff8b68e3          	bltu	s6,s8,8000244a <_out_rev+0x82>
    8000245e:	60e6                	ld	ra,88(sp)
    80002460:	6446                	ld	s0,80(sp)
    80002462:	6906                	ld	s2,64(sp)
    80002464:	79e2                	ld	s3,56(sp)
    80002466:	7a42                	ld	s4,48(sp)
    80002468:	7aa2                	ld	s5,40(sp)
    8000246a:	7b02                	ld	s6,32(sp)
    8000246c:	6be2                	ld	s7,24(sp)
    8000246e:	6c42                	ld	s8,16(sp)
    80002470:	6ca2                	ld	s9,8(sp)
    80002472:	8526                	mv	a0,s1
    80002474:	64a6                	ld	s1,72(sp)
    80002476:	6125                	addi	sp,sp,96
    80002478:	8082                	ret
    8000247a:	8932                	mv	s2,a2
    8000247c:	84b2                	mv	s1,a2
    8000247e:	ffd9                	bnez	a5,8000241c <_out_rev+0x54>
    80002480:	bf5d                	j	80002436 <_out_rev+0x6e>
    80002482:	8932                	mv	s2,a2
    80002484:	fc41                	bnez	s0,8000241c <_out_rev+0x54>
    80002486:	bfe1                	j	8000245e <_out_rev+0x96>

Disassembly of section .text._ntoa_long:

0000000080002488 <_ntoa_long>:
    80002488:	711d                	addi	sp,sp,-96
    8000248a:	e4a6                	sd	s1,72(sp)
    8000248c:	54a6                	lw	s1,104(sp)
    8000248e:	e0ca                	sd	s2,64(sp)
    80002490:	fc4e                	sd	s3,56(sp)
    80002492:	f852                	sd	s4,48(sp)
    80002494:	f456                	sd	s5,40(sp)
    80002496:	ec86                	sd	ra,88(sp)
    80002498:	e8a2                	sd	s0,80(sp)
    8000249a:	8ec2                	mv	t4,a6
    8000249c:	8e3a                	mv	t3,a4
    8000249e:	5806                	lw	a6,96(sp)
    800024a0:	89be                	mv	s3,a5
    800024a2:	8946                	mv	s2,a7
    800024a4:	4004fa93          	andi	s5,s1,1024
    800024a8:	0104fa13          	andi	s4,s1,16
    800024ac:	eb01                	bnez	a4,800024bc <_ntoa_long+0x34>
    800024ae:	fef4f893          	andi	a7,s1,-17
    800024b2:	2881                	sext.w	a7,a7
    800024b4:	080a9363          	bnez	s5,8000253a <_ntoa_long+0xb2>
    800024b8:	84c6                	mv	s1,a7
    800024ba:	4a01                	li	s4,0
    800024bc:	4854d793          	bexti	a5,s1,0x5
    800024c0:	06100293          	li	t0,97
    800024c4:	eba5                	bnez	a5,80002534 <_ntoa_long+0xac>
    800024c6:	32d9                	addiw	t0,t0,-10
    800024c8:	4781                	li	a5,0
    800024ca:	870a                	mv	a4,sp
    800024cc:	43a5                	li	t2,9
    800024ce:	02000413          	li	s0,32
    800024d2:	a021                	j	800024da <_ntoa_long+0x52>
    800024d4:	0a878d63          	beq	a5,s0,8000258e <_ntoa_long+0x106>
    800024d8:	8e1a                	mv	t3,t1
    800024da:	03de7f33          	remu	t5,t3,t4
    800024de:	0fff7313          	zext.b	t1,t5
    800024e2:	03030f9b          	addiw	t6,t1,48
    800024e6:	0062833b          	addw	t1,t0,t1
    800024ea:	0ff37313          	zext.b	t1,t1
    800024ee:	01e3e463          	bltu	t2,t5,800024f6 <_ntoa_long+0x6e>
    800024f2:	0ffff313          	zext.b	t1,t6
    800024f6:	0785                	addi	a5,a5,1
    800024f8:	00f70f33          	add	t5,a4,a5
    800024fc:	fe6f0fa3          	sb	t1,-1(t5)
    80002500:	03de5333          	divu	t1,t3,t4
    80002504:	fdde78e3          	bgeu	t3,t4,800024d4 <_ntoa_long+0x4c>
    80002508:	0024f893          	andi	a7,s1,2
    8000250c:	10088363          	beqz	a7,80002612 <_ntoa_long+0x18a>
    80002510:	140a1a63          	bnez	s4,80002664 <_ntoa_long+0x1dc>
    80002514:	88a6                	mv	a7,s1
    80002516:	02000313          	li	t1,32
    8000251a:	04679c63          	bne	a5,t1,80002572 <_ntoa_long+0xea>
    8000251e:	eabff0ef          	jal	800023c8 <_out_rev>
    80002522:	60e6                	ld	ra,88(sp)
    80002524:	6446                	ld	s0,80(sp)
    80002526:	64a6                	ld	s1,72(sp)
    80002528:	6906                	ld	s2,64(sp)
    8000252a:	79e2                	ld	s3,56(sp)
    8000252c:	7a42                	ld	s4,48(sp)
    8000252e:	7aa2                	ld	s5,40(sp)
    80002530:	6125                	addi	sp,sp,96
    80002532:	8082                	ret
    80002534:	04100293          	li	t0,65
    80002538:	b779                	j	800024c6 <_ntoa_long+0x3e>
    8000253a:	87a6                	mv	a5,s1
    8000253c:	0027fa13          	andi	s4,a5,2
    80002540:	020a1763          	bnez	s4,8000256e <_ntoa_long+0xe6>
    80002544:	08090e3b          	zext.w	t3,s2
    80002548:	1e080863          	beqz	a6,80002738 <_ntoa_long+0x2b0>
    8000254c:	0017ff93          	andi	t6,a5,1
    80002550:	000f8d63          	beqz	t6,8000256a <_ntoa_long+0xe2>
    80002554:	26098463          	beqz	s3,800027bc <_ntoa_long+0x334>
    80002558:	387d                	addiw	a6,a6,-1
    8000255a:	200e0e63          	beqz	t3,80002776 <_ntoa_long+0x2ee>
    8000255e:	84c6                	mv	s1,a7
    80002560:	4781                	li	a5,0
    80002562:	40000a93          	li	s5,1024
    80002566:	870a                	mv	a4,sp
    80002568:	a081                	j	800025a8 <_ntoa_long+0x120>
    8000256a:	fe0e1ae3          	bnez	t3,8000255e <_ntoa_long+0xd6>
    8000256e:	4781                	li	a5,0
    80002570:	870a                	mv	a4,sp
    80002572:	0c099663          	bnez	s3,8000263e <_ntoa_long+0x1b6>
    80002576:	0048f313          	andi	t1,a7,4
    8000257a:	16030463          	beqz	t1,800026e2 <_ntoa_long+0x25a>
    8000257e:	00278333          	add	t1,a5,sp
    80002582:	02b00e13          	li	t3,43
    80002586:	01c30023          	sb	t3,0(t1)
    8000258a:	0785                	addi	a5,a5,1
    8000258c:	bf49                	j	8000251e <_ntoa_long+0x96>
    8000258e:	0024f893          	andi	a7,s1,2
    80002592:	0a089e63          	bnez	a7,8000264e <_ntoa_long+0x1c6>
    80002596:	08090e3b          	zext.w	t3,s2
    8000259a:	08081063          	bnez	a6,8000261a <_ntoa_long+0x192>
    8000259e:	27c7f663          	bgeu	a5,t3,8000280a <_ntoa_long+0x382>
    800025a2:	0014ff93          	andi	t6,s1,1
    800025a6:	4801                	li	a6,0
    800025a8:	02000313          	li	t1,32
    800025ac:	03000f13          	li	t5,48
    800025b0:	00678963          	beq	a5,t1,800025c2 <_ntoa_long+0x13a>
    800025b4:	0785                	addi	a5,a5,1
    800025b6:	00f708b3          	add	a7,a4,a5
    800025ba:	ffe88fa3          	sb	t5,-1(a7)
    800025be:	ffc7e9e3          	bltu	a5,t3,800025b0 <_ntoa_long+0x128>
    800025c2:	0c0f8a63          	beqz	t6,80002696 <_ntoa_long+0x20e>
    800025c6:	08080f3b          	zext.w	t5,a6
    800025ca:	0de7f663          	bgeu	a5,t5,80002696 <_ntoa_long+0x20e>
    800025ce:	02000893          	li	a7,32
    800025d2:	03000f93          	li	t6,48
    800025d6:	0f178a63          	beq	a5,a7,800026ca <_ntoa_long+0x242>
    800025da:	0785                	addi	a5,a5,1
    800025dc:	00f70333          	add	t1,a4,a5
    800025e0:	fff30fa3          	sb	t6,-1(t1)
    800025e4:	ffe799e3          	bne	a5,t5,800025d6 <_ntoa_long+0x14e>
    800025e8:	0c0a0e63          	beqz	s4,800026c4 <_ntoa_long+0x23c>
    800025ec:	180a9363          	bnez	s5,80002772 <_ntoa_long+0x2ea>
    800025f0:	220f1463          	bnez	t5,80002818 <_ntoa_long+0x390>
    800025f4:	47c1                	li	a5,16
    800025f6:	18fe8b63          	beq	t4,a5,8000278c <_ntoa_long+0x304>
    800025fa:	4789                	li	a5,2
    800025fc:	1afe8a63          	beq	t4,a5,800027b0 <_ntoa_long+0x328>
    80002600:	03000793          	li	a5,48
    80002604:	00f10023          	sb	a5,0(sp)
    80002608:	88a6                	mv	a7,s1
    8000260a:	4785                	li	a5,1
    8000260c:	f60985e3          	beqz	s3,80002576 <_ntoa_long+0xee>
    80002610:	a03d                	j	8000263e <_ntoa_long+0x1b6>
    80002612:	08090e3b          	zext.w	t3,s2
    80002616:	06080e63          	beqz	a6,80002692 <_ntoa_long+0x20a>
    8000261a:	0014ff93          	andi	t6,s1,1
    8000261e:	88a6                	mv	a7,s1
    80002620:	0a0f8e63          	beqz	t6,800026dc <_ntoa_long+0x254>
    80002624:	12098263          	beqz	s3,80002748 <_ntoa_long+0x2c0>
    80002628:	387d                	addiw	a6,a6,-1
    8000262a:	f7c7efe3          	bltu	a5,t3,800025a8 <_ntoa_long+0x120>
    8000262e:	08080f3b          	zext.w	t5,a6
    80002632:	f9e7eee3          	bltu	a5,t5,800025ce <_ntoa_long+0x146>
    80002636:	8f3e                	mv	t5,a5
    80002638:	fa0a1ae3          	bnez	s4,800025ec <_ntoa_long+0x164>
    8000263c:	a061                	j	800026c4 <_ntoa_long+0x23c>
    8000263e:	00278333          	add	t1,a5,sp
    80002642:	02d00e13          	li	t3,45
    80002646:	01c30023          	sb	t3,0(t1)
    8000264a:	0785                	addi	a5,a5,1
    8000264c:	bdc9                	j	8000251e <_ntoa_long+0x96>
    8000264e:	88a6                	mv	a7,s1
    80002650:	ec0a07e3          	beqz	s4,8000251e <_ntoa_long+0x96>
    80002654:	ec0a95e3          	bnez	s5,8000251e <_ntoa_long+0x96>
    80002658:	00f90463          	beq	s2,a5,80002660 <_ntoa_long+0x1d8>
    8000265c:	04f81263          	bne	a6,a5,800026a0 <_ntoa_long+0x218>
    80002660:	437d                	li	t1,31
    80002662:	a005                	j	80002682 <_ntoa_long+0x1fa>
    80002664:	08090e3b          	zext.w	t3,s2
    80002668:	020a9b63          	bnez	s5,8000269e <_ntoa_long+0x216>
    8000266c:	00fe0763          	beq	t3,a5,8000267a <_ntoa_long+0x1f2>
    80002670:	0808033b          	zext.w	t1,a6
    80002674:	88a6                	mv	a7,s1
    80002676:	02f31563          	bne	t1,a5,800026a0 <_ntoa_long+0x218>
    8000267a:	fff78313          	addi	t1,a5,-1
    8000267e:	f6030be3          	beqz	t1,800025f4 <_ntoa_long+0x16c>
    80002682:	48c1                	li	a7,16
    80002684:	151e8763          	beq	t4,a7,800027d2 <_ntoa_long+0x34a>
    80002688:	4889                	li	a7,2
    8000268a:	171e8363          	beq	t4,a7,800027f0 <_ntoa_long+0x368>
    8000268e:	88a6                	mv	a7,s1
    80002690:	a025                	j	800026b8 <_ntoa_long+0x230>
    80002692:	f1c7e8e3          	bltu	a5,t3,800025a2 <_ntoa_long+0x11a>
    80002696:	e60a0fe3          	beqz	s4,80002514 <_ntoa_long+0x8c>
    8000269a:	fc0a89e3          	beqz	s5,8000266c <_ntoa_long+0x1e4>
    8000269e:	88a6                	mv	a7,s1
    800026a0:	4341                	li	t1,16
    800026a2:	046e8e63          	beq	t4,t1,800026fe <_ntoa_long+0x276>
    800026a6:	4309                	li	t1,2
    800026a8:	066e8c63          	beq	t4,t1,80002720 <_ntoa_long+0x298>
    800026ac:	02000313          	li	t1,32
    800026b0:	e66787e3          	beq	a5,t1,8000251e <_ntoa_long+0x96>
    800026b4:	833e                	mv	t1,a5
    800026b6:	0785                	addi	a5,a5,1
    800026b8:	930a                	add	t1,t1,sp
    800026ba:	03000e13          	li	t3,48
    800026be:	01c30023          	sb	t3,0(t1)
    800026c2:	bd91                	j	80002516 <_ntoa_long+0x8e>
    800026c4:	88a6                	mv	a7,s1
    800026c6:	87fa                	mv	a5,t5
    800026c8:	b5b9                	j	80002516 <_ntoa_long+0x8e>
    800026ca:	88a6                	mv	a7,s1
    800026cc:	e40a09e3          	beqz	s4,8000251e <_ntoa_long+0x96>
    800026d0:	e40a97e3          	bnez	s5,8000251e <_ntoa_long+0x96>
    800026d4:	f8f91ee3          	bne	s2,a5,80002670 <_ntoa_long+0x1e8>
    800026d8:	437d                	li	t1,31
    800026da:	b765                	j	80002682 <_ntoa_long+0x1fa>
    800026dc:	edc7e6e3          	bltu	a5,t3,800025a8 <_ntoa_long+0x120>
    800026e0:	bf5d                	j	80002696 <_ntoa_long+0x20e>
    800026e2:	0088f313          	andi	t1,a7,8
    800026e6:	e2030ce3          	beqz	t1,8000251e <_ntoa_long+0x96>
    800026ea:	02000e13          	li	t3,32
    800026ee:	01c78433          	add	s0,a5,t3
    800026f2:	00240333          	add	t1,s0,sp
    800026f6:	ffc30023          	sb	t3,-32(t1)
    800026fa:	0785                	addi	a5,a5,1
    800026fc:	b50d                	j	8000251e <_ntoa_long+0x96>
    800026fe:	0204f493          	andi	s1,s1,32
    80002702:	02000313          	li	t1,32
    80002706:	e8b1                	bnez	s1,8000275a <_ntoa_long+0x2d2>
    80002708:	e0678be3          	beq	a5,t1,8000251e <_ntoa_long+0x96>
    8000270c:	00678433          	add	s0,a5,t1
    80002710:	07800e13          	li	t3,120
    80002714:	00240333          	add	t1,s0,sp
    80002718:	ffc30023          	sb	t3,-32(t1)
    8000271c:	0785                	addi	a5,a5,1
    8000271e:	b779                	j	800026ac <_ntoa_long+0x224>
    80002720:	02000313          	li	t1,32
    80002724:	de678de3          	beq	a5,t1,8000251e <_ntoa_long+0x96>
    80002728:	833e                	mv	t1,a5
    8000272a:	0785                	addi	a5,a5,1
    8000272c:	930a                	add	t1,t1,sp
    8000272e:	06200e13          	li	t3,98
    80002732:	01c30023          	sb	t3,0(t1)
    80002736:	bf9d                	j	800026ac <_ntoa_long+0x224>
    80002738:	e20e0be3          	beqz	t3,8000256e <_ntoa_long+0xe6>
    8000273c:	84c6                	mv	s1,a7
    8000273e:	4781                	li	a5,0
    80002740:	40000a93          	li	s5,1024
    80002744:	870a                	mv	a4,sp
    80002746:	bdb1                	j	800025a2 <_ntoa_long+0x11a>
    80002748:	00c8f893          	andi	a7,a7,12
    8000274c:	00088363          	beqz	a7,80002752 <_ntoa_long+0x2ca>
    80002750:	387d                	addiw	a6,a6,-1
    80002752:	4f85                	li	t6,1
    80002754:	e5c7eae3          	bltu	a5,t3,800025a8 <_ntoa_long+0x120>
    80002758:	bdd9                	j	8000262e <_ntoa_long+0x1a6>
    8000275a:	dc6782e3          	beq	a5,t1,8000251e <_ntoa_long+0x96>
    8000275e:	00678433          	add	s0,a5,t1
    80002762:	05800e13          	li	t3,88
    80002766:	00240333          	add	t1,s0,sp
    8000276a:	ffc30023          	sb	t3,-32(t1)
    8000276e:	0785                	addi	a5,a5,1
    80002770:	bf35                	j	800026ac <_ntoa_long+0x224>
    80002772:	87fa                	mv	a5,t5
    80002774:	b72d                	j	8000269e <_ntoa_long+0x216>
    80002776:	08080f3b          	zext.w	t5,a6
    8000277a:	4781                	li	a5,0
    8000277c:	870a                	mv	a4,sp
    8000277e:	d8080ce3          	beqz	a6,80002516 <_ntoa_long+0x8e>
    80002782:	84c6                	mv	s1,a7
    80002784:	4781                	li	a5,0
    80002786:	40000a93          	li	s5,1024
    8000278a:	b591                	j	800025ce <_ntoa_long+0x146>
    8000278c:	4854d793          	bexti	a5,s1,0x5
    80002790:	40f007b3          	neg	a5,a5
    80002794:	9b81                	andi	a5,a5,-32
    80002796:	07878793          	addi	a5,a5,120
    8000279a:	03000893          	li	a7,48
    8000279e:	00f10023          	sb	a5,0(sp)
    800027a2:	011100a3          	sb	a7,1(sp)
    800027a6:	88a6                	mv	a7,s1
    800027a8:	4789                	li	a5,2
    800027aa:	dc0986e3          	beqz	s3,80002576 <_ntoa_long+0xee>
    800027ae:	bd41                	j	8000263e <_ntoa_long+0x1b6>
    800027b0:	678d                	lui	a5,0x3
    800027b2:	06278793          	addi	a5,a5,98 # 3062 <i+0x3042>
    800027b6:	00f11023          	sh	a5,0(sp)
    800027ba:	b7f5                	j	800027a6 <_ntoa_long+0x31e>
    800027bc:	8bb1                	andi	a5,a5,12
    800027be:	84c6                	mv	s1,a7
    800027c0:	eb95                	bnez	a5,800027f4 <_ntoa_long+0x36c>
    800027c2:	08080f3b          	zext.w	t5,a6
    800027c6:	40000a93          	li	s5,1024
    800027ca:	870a                	mv	a4,sp
    800027cc:	d80e1ae3          	bnez	t3,80002560 <_ntoa_long+0xd8>
    800027d0:	bbfd                	j	800025ce <_ntoa_long+0x146>
    800027d2:	17f9                	addi	a5,a5,-2
    800027d4:	02078793          	addi	a5,a5,32
    800027d8:	0204f893          	andi	a7,s1,32
    800027dc:	978a                	add	a5,a5,sp
    800027de:	02088163          	beqz	a7,80002800 <_ntoa_long+0x378>
    800027e2:	05800893          	li	a7,88
    800027e6:	ff178023          	sb	a7,-32(a5)
    800027ea:	88a6                	mv	a7,s1
    800027ec:	879a                	mv	a5,t1
    800027ee:	b5d9                	j	800026b4 <_ntoa_long+0x22c>
    800027f0:	88a6                	mv	a7,s1
    800027f2:	bf2d                	j	8000272c <_ntoa_long+0x2a4>
    800027f4:	4781                	li	a5,0
    800027f6:	40000a93          	li	s5,1024
    800027fa:	870a                	mv	a4,sp
    800027fc:	387d                	addiw	a6,a6,-1
    800027fe:	bf91                	j	80002752 <_ntoa_long+0x2ca>
    80002800:	07800893          	li	a7,120
    80002804:	ff178023          	sb	a7,-32(a5)
    80002808:	b7cd                	j	800027ea <_ntoa_long+0x362>
    8000280a:	8f3e                	mv	t5,a5
    8000280c:	88a6                	mv	a7,s1
    8000280e:	d00a08e3          	beqz	s4,8000251e <_ntoa_long+0x96>
    80002812:	dc0a8fe3          	beqz	s5,800025f0 <_ntoa_long+0x168>
    80002816:	bfb1                	j	80002772 <_ntoa_long+0x2ea>
    80002818:	87fa                	mv	a5,t5
    8000281a:	bd89                	j	8000266c <_ntoa_long+0x1e4>

Disassembly of section .text._etoa:

000000008000281c <_etoa>:
    8000281c:	711d                	addi	sp,sp,-96
    8000281e:	f852                	sd	s4,48(sp)
    80002820:	8a3e                	mv	s4,a5
    80002822:	a2a527d3          	feq.d	a5,fa0,fa0
    80002826:	e8a2                	sd	s0,80(sp)
    80002828:	e4a6                	sd	s1,72(sp)
    8000282a:	e0ca                	sd	s2,64(sp)
    8000282c:	fc4e                	sd	s3,56(sp)
    8000282e:	f456                	sd	s5,40(sp)
    80002830:	ec86                	sd	ra,88(sp)
    80002832:	8aaa                	mv	s5,a0
    80002834:	842e                	mv	s0,a1
    80002836:	89b2                	mv	s3,a2
    80002838:	84b6                	mv	s1,a3
    8000283a:	8942                	mv	s2,a6
    8000283c:	1c078763          	beqz	a5,80002a0a <_etoa+0x1ee>
    80002840:	00001797          	auipc	a5,0x1
    80002844:	5207b787          	fld	fa5,1312(a5) # 80003d60 <am_keycode+0x248>
    80002848:	a2a797d3          	flt.d	a5,fa5,fa0
    8000284c:	1a079f63          	bnez	a5,80002a0a <_etoa+0x1ee>
    80002850:	00001797          	auipc	a5,0x1
    80002854:	5187b787          	fld	fa5,1304(a5) # 80003d68 <am_keycode+0x250>
    80002858:	a2f517d3          	flt.d	a5,fa0,fa5
    8000285c:	1a079763          	bnez	a5,80002a0a <_etoa+0x1ee>
    80002860:	f20007d3          	fmv.d.x	fa5,zero
    80002864:	f05a                	sd	s6,32(sp)
    80002866:	ec5e                	sd	s7,24(sp)
    80002868:	a2f517d3          	flt.d	a5,fa0,fa5
    8000286c:	e862                	sd	s8,16(sp)
    8000286e:	e2050653          	fmv.x.d	a2,fa0
    80002872:	c789                	beqz	a5,8000287c <_etoa+0x60>
    80002874:	22a517d3          	fneg.d	fa5,fa0
    80002878:	e2078653          	fmv.x.d	a2,fa5
    8000287c:	40097593          	andi	a1,s2,1024
    80002880:	e191                	bnez	a1,80002884 <_etoa+0x68>
    80002882:	4719                	li	a4,6
    80002884:	03465793          	srli	a5,a2,0x34
    80002888:	7ff7f793          	andi	a5,a5,2047
    8000288c:	c017879b          	addiw	a5,a5,-1023
    80002890:	d2078653          	fcvt.d.w	fa2,a5
    80002894:	00001797          	auipc	a5,0x1
    80002898:	4dc7b687          	fld	fa3,1244(a5) # 80003d70 <am_keycode+0x258>
    8000289c:	00001797          	auipc	a5,0x1
    800028a0:	4dc7b707          	fld	fa4,1244(a5) # 80003d78 <am_keycode+0x260>
    800028a4:	00c61693          	slli	a3,a2,0xc
    800028a8:	3ff00793          	li	a5,1023
    800028ac:	17d2                	slli	a5,a5,0x34
    800028ae:	82b1                	srli	a3,a3,0xc
    800028b0:	8edd                	or	a3,a3,a5
    800028b2:	72d67643          	fmadd.d	fa2,fa2,fa3,fa4
    800028b6:	00001517          	auipc	a0,0x1
    800028ba:	4ca53787          	fld	fa5,1226(a0) # 80003d80 <am_keycode+0x268>
    800028be:	f2068753          	fmv.d.x	fa4,a3
    800028c2:	00001797          	auipc	a5,0x1
    800028c6:	4c67b587          	fld	fa1,1222(a5) # 80003d88 <am_keycode+0x270>
    800028ca:	00001797          	auipc	a5,0x1
    800028ce:	4c67b687          	fld	fa3,1222(a5) # 80003d90 <am_keycode+0x278>
    800028d2:	0af777d3          	fsub.d	fa5,fa4,fa5
    800028d6:	00001797          	auipc	a5,0x1
    800028da:	4827b207          	fld	ft4,1154(a5) # 80003d58 <am_keycode+0x240>
    800028de:	00001797          	auipc	a5,0x1
    800028e2:	4ba7b187          	fld	ft3,1210(a5) # 80003d98 <am_keycode+0x280>
    800028e6:	00001797          	auipc	a5,0x1
    800028ea:	4ba7b107          	fld	ft2,1210(a5) # 80003da0 <am_keycode+0x288>
    800028ee:	00001797          	auipc	a5,0x1
    800028f2:	4ba7b707          	fld	fa4,1210(a5) # 80003da8 <am_keycode+0x290>
    800028f6:	00001797          	auipc	a5,0x1
    800028fa:	4c27b087          	fld	ft1,1218(a5) # 80003db8 <am_keycode+0x2a0>
    800028fe:	00001797          	auipc	a5,0x1
    80002902:	4ca7b007          	fld	ft0,1226(a5) # 80003dc8 <am_keycode+0x2b0>
    80002906:	62b7f7c3          	fmadd.d	fa5,fa5,fa1,fa2
    8000290a:	00001797          	auipc	a5,0x1
    8000290e:	4a67b587          	fld	fa1,1190(a5) # 80003db0 <am_keycode+0x298>
    80002912:	00001797          	auipc	a5,0x1
    80002916:	4ae7b607          	fld	fa2,1198(a5) # 80003dc0 <am_keycode+0x2a8>
    8000291a:	c20797d3          	fcvt.w.d	a5,fa5,rtz
    8000291e:	d20787d3          	fcvt.d.w	fa5,a5
    80002922:	00078b9b          	sext.w	s7,a5
    80002926:	22d7f6c3          	fmadd.d	fa3,fa5,fa3,ft4
    8000292a:	c20696d3          	fcvt.w.d	a3,fa3,rtz
    8000292e:	d20686d3          	fcvt.d.w	fa3,a3
    80002932:	3ff6869b          	addiw	a3,a3,1023
    80002936:	16d2                	slli	a3,a3,0x34
    80002938:	1236f6d3          	fmul.d	fa3,fa3,ft3
    8000293c:	6a27f7c7          	fmsub.d	fa5,fa5,ft2,fa3
    80002940:	12f7f6d3          	fmul.d	fa3,fa5,fa5
    80002944:	0af67653          	fsub.d	fa2,fa2,fa5
    80002948:	02f7f7d3          	fadd.d	fa5,fa5,fa5
    8000294c:	1ae6f753          	fdiv.d	fa4,fa3,fa4
    80002950:	02b77753          	fadd.d	fa4,fa4,fa1
    80002954:	1ae6f753          	fdiv.d	fa4,fa3,fa4
    80002958:	02177753          	fadd.d	fa4,fa4,ft1
    8000295c:	1ae6f6d3          	fdiv.d	fa3,fa3,fa4
    80002960:	f2068753          	fmv.d.x	fa4,a3
    80002964:	02c6f6d3          	fadd.d	fa3,fa3,fa2
    80002968:	1ad7f7d3          	fdiv.d	fa5,fa5,fa3
    8000296c:	0207f7d3          	fadd.d	fa5,fa5,ft0
    80002970:	12e7f7d3          	fmul.d	fa5,fa5,fa4
    80002974:	f2060753          	fmv.d.x	fa4,a2
    80002978:	a2f716d3          	flt.d	a3,fa4,fa5
    8000297c:	e20788d3          	fmv.x.d	a7,fa5
    80002980:	c699                	beqz	a3,8000298e <_etoa+0x172>
    80002982:	1ab7f7d3          	fdiv.d	fa5,fa5,fa1
    80002986:	fff78b9b          	addiw	s7,a5,-1
    8000298a:	e20788d3          	fmv.x.d	a7,fa5
    8000298e:	063b8b1b          	addiw	s6,s7,99
    80002992:	0c600693          	li	a3,198
    80002996:	28b01793          	bseti	a5,zero,0xb
    8000299a:	0166bb33          	sltu	s6,a3,s6
    8000299e:	00f977b3          	and	a5,s2,a5
    800029a2:	0b11                	addi	s6,s6,4
    800029a4:	00297c13          	andi	s8,s2,2
    800029a8:	c3c1                	beqz	a5,80002a28 <_etoa+0x20c>
    800029aa:	00001797          	auipc	a5,0x1
    800029ae:	4267b787          	fld	fa5,1062(a5) # 80003dd0 <am_keycode+0x2b8>
    800029b2:	f2060753          	fmv.d.x	fa4,a2
    800029b6:	a2e787d3          	fle.d	a5,fa5,fa4
    800029ba:	12078663          	beqz	a5,80002ae6 <_etoa+0x2ca>
    800029be:	00001797          	auipc	a5,0x1
    800029c2:	41a7b787          	fld	fa5,1050(a5) # 80003dd8 <am_keycode+0x2c0>
    800029c6:	a2f717d3          	flt.d	a5,fa4,fa5
    800029ca:	10078e63          	beqz	a5,80002ae6 <_etoa+0x2ca>
    800029ce:	4681                	li	a3,0
    800029d0:	00ebd563          	bge	s7,a4,800029da <_etoa+0x1be>
    800029d4:	417706bb          	subw	a3,a4,s7
    800029d8:	36fd                	addiw	a3,a3,-1
    800029da:	f20007d3          	fmv.d.x	fa5,zero
    800029de:	a2f517d3          	flt.d	a5,fa0,fa5
    800029e2:	12079c63          	bnez	a5,80002b1a <_etoa+0x2fe>
    800029e6:	f2060553          	fmv.d.x	fa0,a2
    800029ea:	fff97813          	andi	a6,s2,-1
    800029ee:	48b81813          	bclri	a6,a6,0xb
    800029f2:	8736                	mv	a4,a3
    800029f4:	7b02                	ld	s6,32(sp)
    800029f6:	6be2                	ld	s7,24(sp)
    800029f8:	6c42                	ld	s8,16(sp)
    800029fa:	40086813          	ori	a6,a6,1024
    800029fe:	87d2                	mv	a5,s4
    80002a00:	86a6                	mv	a3,s1
    80002a02:	864e                	mv	a2,s3
    80002a04:	85a2                	mv	a1,s0
    80002a06:	8556                	mv	a0,s5
    80002a08:	a039                	j	80002a16 <_etoa+0x1fa>
    80002a0a:	884a                	mv	a6,s2
    80002a0c:	87d2                	mv	a5,s4
    80002a0e:	86a6                	mv	a3,s1
    80002a10:	864e                	mv	a2,s3
    80002a12:	85a2                	mv	a1,s0
    80002a14:	8556                	mv	a0,s5
    80002a16:	6446                	ld	s0,80(sp)
    80002a18:	60e6                	ld	ra,88(sp)
    80002a1a:	64a6                	ld	s1,72(sp)
    80002a1c:	6906                	ld	s2,64(sp)
    80002a1e:	79e2                	ld	s3,56(sp)
    80002a20:	7a42                	ld	s4,48(sp)
    80002a22:	7aa2                	ld	s5,40(sp)
    80002a24:	6125                	addi	sp,sp,96
    80002a26:	a211                	j	80002b2a <_ftoa>
    80002a28:	014b7563          	bgeu	s6,s4,80002a32 <_etoa+0x216>
    80002a2c:	0c0c0863          	beqz	s8,80002afc <_etoa+0x2e0>
    80002a30:	4c09                	li	s8,2
    80002a32:	000b8a63          	beqz	s7,80002a46 <_etoa+0x22a>
    80002a36:	f20607d3          	fmv.d.x	fa5,a2
    80002a3a:	f2088753          	fmv.d.x	fa4,a7
    80002a3e:	1ae7f7d3          	fdiv.d	fa5,fa5,fa4
    80002a42:	e2078653          	fmv.x.d	a2,fa5
    80002a46:	f20007d3          	fmv.d.x	fa5,zero
    80002a4a:	a2f516d3          	flt.d	a3,fa0,fa5
    80002a4e:	f2060553          	fmv.d.x	fa0,a2
    80002a52:	eae9                	bnez	a3,80002b24 <_etoa+0x308>
    80002a54:	fff97813          	andi	a6,s2,-1
    80002a58:	48b81813          	bclri	a6,a6,0xb
    80002a5c:	86a6                	mv	a3,s1
    80002a5e:	864e                	mv	a2,s3
    80002a60:	85a2                	mv	a1,s0
    80002a62:	8556                	mv	a0,s5
    80002a64:	0c6000ef          	jal	80002b2a <_ftoa>
    80002a68:	48595813          	bexti	a6,s2,0x5
    80002a6c:	187d                	addi	a6,a6,-1
    80002a6e:	02087813          	andi	a6,a6,32
    80002a72:	862a                	mv	a2,a0
    80002a74:	86a6                	mv	a3,s1
    80002a76:	04580513          	addi	a0,a6,69
    80002a7a:	85a2                	mv	a1,s0
    80002a7c:	00160913          	addi	s2,a2,1
    80002a80:	9a82                	jalr	s5
    80002a82:	4795                	li	a5,5
    80002a84:	3b7d                	addiw	s6,s6,-1
    80002a86:	4170073b          	negw	a4,s7
    80002a8a:	864a                	mv	a2,s2
    80002a8c:	e43e                	sd	a5,8(sp)
    80002a8e:	e05a                	sd	s6,0(sp)
    80002a90:	0b776733          	max	a4,a4,s7
    80002a94:	01fbd79b          	srliw	a5,s7,0x1f
    80002a98:	86a6                	mv	a3,s1
    80002a9a:	85a2                	mv	a1,s0
    80002a9c:	8556                	mv	a0,s5
    80002a9e:	4881                	li	a7,0
    80002aa0:	4829                	li	a6,10
    80002aa2:	9e7ff0ef          	jal	80002488 <_ntoa_long>
    80002aa6:	892a                	mv	s2,a0
    80002aa8:	020c0263          	beqz	s8,80002acc <_etoa+0x2b0>
    80002aac:	413509b3          	sub	s3,a0,s3
    80002ab0:	080a0a3b          	zext.w	s4,s4
    80002ab4:	0149fc63          	bgeu	s3,s4,80002acc <_etoa+0x2b0>
    80002ab8:	864a                	mv	a2,s2
    80002aba:	86a6                	mv	a3,s1
    80002abc:	85a2                	mv	a1,s0
    80002abe:	02000513          	li	a0,32
    80002ac2:	0985                	addi	s3,s3,1
    80002ac4:	0905                	addi	s2,s2,1
    80002ac6:	9a82                	jalr	s5
    80002ac8:	ff49e8e3          	bltu	s3,s4,80002ab8 <_etoa+0x29c>
    80002acc:	60e6                	ld	ra,88(sp)
    80002ace:	6446                	ld	s0,80(sp)
    80002ad0:	7b02                	ld	s6,32(sp)
    80002ad2:	6be2                	ld	s7,24(sp)
    80002ad4:	6c42                	ld	s8,16(sp)
    80002ad6:	64a6                	ld	s1,72(sp)
    80002ad8:	79e2                	ld	s3,56(sp)
    80002ada:	7a42                	ld	s4,48(sp)
    80002adc:	7aa2                	ld	s5,40(sp)
    80002ade:	854a                	mv	a0,s2
    80002ae0:	6906                	ld	s2,64(sp)
    80002ae2:	6125                	addi	sp,sp,96
    80002ae4:	8082                	ret
    80002ae6:	cf11                	beqz	a4,80002b02 <_etoa+0x2e6>
    80002ae8:	c58d                	beqz	a1,80002b12 <_etoa+0x2f6>
    80002aea:	377d                	addiw	a4,a4,-1
    80002aec:	4781                	li	a5,0
    80002aee:	f54b72e3          	bgeu	s6,s4,80002a32 <_etoa+0x216>
    80002af2:	000c0563          	beqz	s8,80002afc <_etoa+0x2e0>
    80002af6:	4c09                	li	s8,2
    80002af8:	4781                	li	a5,0
    80002afa:	bf25                	j	80002a32 <_etoa+0x216>
    80002afc:	416a07bb          	subw	a5,s4,s6
    80002b00:	bf0d                	j	80002a32 <_etoa+0x216>
    80002b02:	4781                	li	a5,0
    80002b04:	f34b77e3          	bgeu	s6,s4,80002a32 <_etoa+0x216>
    80002b08:	fe0c0ae3          	beqz	s8,80002afc <_etoa+0x2e0>
    80002b0c:	4781                	li	a5,0
    80002b0e:	4c09                	li	s8,2
    80002b10:	b70d                	j	80002a32 <_etoa+0x216>
    80002b12:	ff4b6be3          	bltu	s6,s4,80002b08 <_etoa+0x2ec>
    80002b16:	4781                	li	a5,0
    80002b18:	bf29                	j	80002a32 <_etoa+0x216>
    80002b1a:	f20607d3          	fmv.d.x	fa5,a2
    80002b1e:	22f79553          	fneg.d	fa0,fa5
    80002b22:	b5e1                	j	800029ea <_etoa+0x1ce>
    80002b24:	22a51553          	fneg.d	fa0,fa0
    80002b28:	b735                	j	80002a54 <_etoa+0x238>

Disassembly of section .text._ftoa:

0000000080002b2a <_ftoa>:
    80002b2a:	88c2                	mv	a7,a6
    80002b2c:	a2a52853          	feq.d	a6,fa0,fa0
    80002b30:	14080863          	beqz	a6,80002c80 <_ftoa+0x156>
    80002b34:	7139                	addi	sp,sp,-64
    80002b36:	f426                	sd	s1,40(sp)
    80002b38:	00001497          	auipc	s1,0x1
    80002b3c:	2304b787          	fld	fa5,560(s1) # 80003d68 <am_keycode+0x250>
    80002b40:	fc06                	sd	ra,56(sp)
    80002b42:	a2f51853          	flt.d	a6,fa0,fa5
    80002b46:	20081763          	bnez	a6,80002d54 <_ftoa+0x22a>
    80002b4a:	f822                	sd	s0,48(sp)
    80002b4c:	8436                	mv	s0,a3
    80002b4e:	00001697          	auipc	a3,0x1
    80002b52:	2126b787          	fld	fa5,530(a3) # 80003d60 <am_keycode+0x248>
    80002b56:	8faa                	mv	t6,a0
    80002b58:	82ae                	mv	t0,a1
    80002b5a:	a2a796d3          	flt.d	a3,fa5,fa0
    80002b5e:	83b2                	mv	t2,a2
    80002b60:	eee5                	bnez	a3,80002c58 <_ftoa+0x12e>
    80002b62:	00001697          	auipc	a3,0x1
    80002b66:	1d66b787          	fld	fa5,470(a3) # 80003d38 <am_keycode+0x220>
    80002b6a:	a2a796d3          	flt.d	a3,fa5,fa0
    80002b6e:	1c069963          	bnez	a3,80002d40 <_ftoa+0x216>
    80002b72:	00001697          	auipc	a3,0x1
    80002b76:	26e6b787          	fld	fa5,622(a3) # 80003de0 <am_keycode+0x2c8>
    80002b7a:	a2f516d3          	flt.d	a3,fa0,fa5
    80002b7e:	1c069163          	bnez	a3,80002d40 <_ftoa+0x216>
    80002b82:	f20007d3          	fmv.d.x	fa5,zero
    80002b86:	4581                	li	a1,0
    80002b88:	a2f516d3          	flt.d	a3,fa0,fa5
    80002b8c:	1a069663          	bnez	a3,80002d38 <_ftoa+0x20e>
    80002b90:	4008f693          	andi	a3,a7,1024
    80002b94:	e291                	bnez	a3,80002b98 <_ftoa+0x6e>
    80002b96:	4719                	li	a4,6
    80002b98:	4301                	li	t1,0
    80002b9a:	868a                	mv	a3,sp
    80002b9c:	4525                	li	a0,9
    80002b9e:	03000e13          	li	t3,48
    80002ba2:	02000813          	li	a6,32
    80002ba6:	00e57a63          	bgeu	a0,a4,80002bba <_ftoa+0x90>
    80002baa:	0305                	addi	t1,t1,1
    80002bac:	00668633          	add	a2,a3,t1
    80002bb0:	ffc60fa3          	sb	t3,-1(a2)
    80002bb4:	377d                	addiw	a4,a4,-1
    80002bb6:	ff0318e3          	bne	t1,a6,80002ba6 <_ftoa+0x7c>
    80002bba:	c2051853          	fcvt.w.d	a6,fa0,rtz
    80002bbe:	00001617          	auipc	a2,0x1
    80002bc2:	f0a60613          	addi	a2,a2,-246 # 80003ac8 <pow10.0>
    80002bc6:	20c7663b          	sh3add.uw	a2,a4,a2
    80002bca:	d20807d3          	fcvt.d.w	fa5,a6
    80002bce:	2214                	fld	fa3,0(a2)
    80002bd0:	00001617          	auipc	a2,0x1
    80002bd4:	18863707          	fld	fa4,392(a2) # 80003d58 <am_keycode+0x240>
    80002bd8:	0af577d3          	fsub.d	fa5,fa0,fa5
    80002bdc:	00080f1b          	sext.w	t5,a6
    80002be0:	12d7f7d3          	fmul.d	fa5,fa5,fa3
    80002be4:	c2379553          	fcvt.lu.d	a0,fa5,rtz
    80002be8:	d2357653          	fcvt.d.lu	fa2,a0
    80002bec:	0ac7f7d3          	fsub.d	fa5,fa5,fa2
    80002bf0:	a2f71653          	flt.d	a2,fa4,fa5
    80002bf4:	ce51                	beqz	a2,80002c90 <_ftoa+0x166>
    80002bf6:	0505                	addi	a0,a0,1
    80002bf8:	d23577d3          	fcvt.d.lu	fa5,a0
    80002bfc:	a2f68653          	fle.d	a2,fa3,fa5
    80002c00:	c601                	beqz	a2,80002c08 <_ftoa+0xde>
    80002c02:	00180f1b          	addiw	t5,a6,1
    80002c06:	4501                	li	a0,0
    80002c08:	cb59                	beqz	a4,80002c9e <_ftoa+0x174>
    80002c0a:	ccccd637          	lui	a2,0xccccd
    80002c0e:	ccd60613          	addi	a2,a2,-819 # ffffffffcccccccd <_pmem_end+0xffffffff0ccccccd>
    80002c12:	02061493          	slli	s1,a2,0x20
    80002c16:	fe070e9b          	addiw	t4,a4,-32
    80002c1a:	f04a                	sd	s2,32(sp)
    80002c1c:	94b2                	add	s1,s1,a2
    80002c1e:	006e8ebb          	addw	t4,t4,t1
    80002c22:	4925                	li	s2,9
    80002c24:	a00d                	j	80002c46 <_ftoa+0x11c>
    80002c26:	02953633          	mulhu	a2,a0,s1
    80002c2a:	377d                	addiw	a4,a4,-1
    80002c2c:	820d                	srli	a2,a2,0x3
    80002c2e:	20c64e33          	sh2add	t3,a2,a2
    80002c32:	0e06                	slli	t3,t3,0x1
    80002c34:	41c50e33          	sub	t3,a0,t3
    80002c38:	030e0e1b          	addiw	t3,t3,48
    80002c3c:	ffc80fa3          	sb	t3,-1(a6)
    80002c40:	16a97463          	bgeu	s2,a0,80002da8 <_ftoa+0x27e>
    80002c44:	8532                	mv	a0,a2
    80002c46:	0305                	addi	t1,t1,1
    80002c48:	00668833          	add	a6,a3,t1
    80002c4c:	fdd71de3          	bne	a4,t4,80002c26 <_ftoa+0xfc>
    80002c50:	7902                	ld	s2,32(sp)
    80002c52:	02000313          	li	t1,32
    80002c56:	a8b1                	j	80002cb2 <_ftoa+0x188>
    80002c58:	0048f713          	andi	a4,a7,4
    80002c5c:	eb61                	bnez	a4,80002d2c <_ftoa+0x202>
    80002c5e:	00001717          	auipc	a4,0x1
    80002c62:	c5270713          	addi	a4,a4,-942 # 800038b0 <__am_timer_read+0x142>
    80002c66:	468d                	li	a3,3
    80002c68:	883e                	mv	a6,a5
    80002c6a:	87b6                	mv	a5,a3
    80002c6c:	86a2                	mv	a3,s0
    80002c6e:	7442                	ld	s0,48(sp)
    80002c70:	70e2                	ld	ra,56(sp)
    80002c72:	74a2                	ld	s1,40(sp)
    80002c74:	861e                	mv	a2,t2
    80002c76:	8596                	mv	a1,t0
    80002c78:	857e                	mv	a0,t6
    80002c7a:	6121                	addi	sp,sp,64
    80002c7c:	f4cff06f          	j	800023c8 <_out_rev>
    80002c80:	883e                	mv	a6,a5
    80002c82:	00001717          	auipc	a4,0x1
    80002c86:	c3670713          	addi	a4,a4,-970 # 800038b8 <__am_timer_read+0x14a>
    80002c8a:	478d                	li	a5,3
    80002c8c:	f3cff06f          	j	800023c8 <_out_rev>
    80002c90:	a2e79653          	flt.d	a2,fa5,fa4
    80002c94:	fa35                	bnez	a2,80002c08 <_ftoa+0xde>
    80002c96:	18051663          	bnez	a0,80002e22 <_ftoa+0x2f8>
    80002c9a:	0505                	addi	a0,a0,1
    80002c9c:	f73d                	bnez	a4,80002c0a <_ftoa+0xe0>
    80002c9e:	d20f07d3          	fcvt.d.w	fa5,t5
    80002ca2:	0af57553          	fsub.d	fa0,fa0,fa5
    80002ca6:	a2e51753          	flt.d	a4,fa0,fa4
    80002caa:	e701                	bnez	a4,80002cb2 <_ftoa+0x188>
    80002cac:	2f05                	addiw	t5,t5,1
    80002cae:	ffef7f13          	andi	t5,t5,-2
    80002cb2:	66666537          	lui	a0,0x66666
    80002cb6:	66750513          	addi	a0,a0,1639 # 66666667 <i+0x66666647>
    80002cba:	02000813          	li	a6,32
    80002cbe:	a80d                	j	80002cf0 <_ftoa+0x1c6>
    80002cc0:	02af0eb3          	mul	t4,t5,a0
    80002cc4:	0305                	addi	t1,t1,1
    80002cc6:	00668633          	add	a2,a3,t1
    80002cca:	422ede93          	srai	t4,t4,0x22
    80002cce:	40ee8ebb          	subw	t4,t4,a4
    80002cd2:	002e9e1b          	slliw	t3,t4,0x2
    80002cd6:	01de0e3b          	addw	t3,t3,t4
    80002cda:	001e1e1b          	slliw	t3,t3,0x1
    80002cde:	41cf0e3b          	subw	t3,t5,t3
    80002ce2:	030e0e1b          	addiw	t3,t3,48
    80002ce6:	ffc60fa3          	sb	t3,-1(a2)
    80002cea:	8f76                	mv	t5,t4
    80002cec:	060e8f63          	beqz	t4,80002d6a <_ftoa+0x240>
    80002cf0:	41ff571b          	sraiw	a4,t5,0x1f
    80002cf4:	fd0316e3          	bne	t1,a6,80002cc0 <_ftoa+0x196>
    80002cf8:	0038f713          	andi	a4,a7,3
    80002cfc:	4605                	li	a2,1
    80002cfe:	08c71763          	bne	a4,a2,80002d8c <_ftoa+0x262>
    80002d02:	c7c9                	beqz	a5,80002d8c <_ftoa+0x262>
    80002d04:	cde1                	beqz	a1,80002ddc <_ftoa+0x2b2>
    80002d06:	37fd                	addiw	a5,a5,-1
    80002d08:	08f37263          	bgeu	t1,a5,80002d8c <_ftoa+0x262>
    80002d0c:	02000613          	li	a2,32
    80002d10:	03000813          	li	a6,48
    80002d14:	0807853b          	zext.w	a0,a5
    80002d18:	06c30a63          	beq	t1,a2,80002d8c <_ftoa+0x262>
    80002d1c:	0305                	addi	t1,t1,1
    80002d1e:	00668733          	add	a4,a3,t1
    80002d22:	ff070fa3          	sb	a6,-1(a4)
    80002d26:	fea369e3          	bltu	t1,a0,80002d18 <_ftoa+0x1ee>
    80002d2a:	a0a9                	j	80002d74 <_ftoa+0x24a>
    80002d2c:	00001717          	auipc	a4,0x1
    80002d30:	b7c70713          	addi	a4,a4,-1156 # 800038a8 <__am_timer_read+0x13a>
    80002d34:	4691                	li	a3,4
    80002d36:	bf0d                	j	80002c68 <_ftoa+0x13e>
    80002d38:	0aa7f553          	fsub.d	fa0,fa5,fa0
    80002d3c:	4585                	li	a1,1
    80002d3e:	bd89                	j	80002b90 <_ftoa+0x66>
    80002d40:	86a2                	mv	a3,s0
    80002d42:	7442                	ld	s0,48(sp)
    80002d44:	70e2                	ld	ra,56(sp)
    80002d46:	74a2                	ld	s1,40(sp)
    80002d48:	8846                	mv	a6,a7
    80002d4a:	861e                	mv	a2,t2
    80002d4c:	8596                	mv	a1,t0
    80002d4e:	857e                	mv	a0,t6
    80002d50:	6121                	addi	sp,sp,64
    80002d52:	b4e9                	j	8000281c <_etoa>
    80002d54:	70e2                	ld	ra,56(sp)
    80002d56:	74a2                	ld	s1,40(sp)
    80002d58:	883e                	mv	a6,a5
    80002d5a:	4791                	li	a5,4
    80002d5c:	00001717          	auipc	a4,0x1
    80002d60:	b6470713          	addi	a4,a4,-1180 # 800038c0 <__am_timer_read+0x152>
    80002d64:	6121                	addi	sp,sp,64
    80002d66:	e62ff06f          	j	800023c8 <_out_rev>
    80002d6a:	0038f713          	andi	a4,a7,3
    80002d6e:	4605                	li	a2,1
    80002d70:	0cc70463          	beq	a4,a2,80002e38 <_ftoa+0x30e>
    80002d74:	02000713          	li	a4,32
    80002d78:	00e30a63          	beq	t1,a4,80002d8c <_ftoa+0x262>
    80002d7c:	cda5                	beqz	a1,80002df4 <_ftoa+0x2ca>
    80002d7e:	00230733          	add	a4,t1,sp
    80002d82:	02d00613          	li	a2,45
    80002d86:	00c70023          	sb	a2,0(a4)
    80002d8a:	0305                	addi	t1,t1,1
    80002d8c:	883e                	mv	a6,a5
    80002d8e:	8736                	mv	a4,a3
    80002d90:	879a                	mv	a5,t1
    80002d92:	86a2                	mv	a3,s0
    80002d94:	861e                	mv	a2,t2
    80002d96:	8596                	mv	a1,t0
    80002d98:	857e                	mv	a0,t6
    80002d9a:	e2eff0ef          	jal	800023c8 <_out_rev>
    80002d9e:	70e2                	ld	ra,56(sp)
    80002da0:	7442                	ld	s0,48(sp)
    80002da2:	74a2                	ld	s1,40(sp)
    80002da4:	6121                	addi	sp,sp,64
    80002da6:	8082                	ret
    80002da8:	02000613          	li	a2,32
    80002dac:	eac302e3          	beq	t1,a2,80002c50 <_ftoa+0x126>
    80002db0:	08670e3b          	add.uw	t3,a4,t1
    80002db4:	03000513          	li	a0,48
    80002db8:	01c30a63          	beq	t1,t3,80002dcc <_ftoa+0x2a2>
    80002dbc:	0305                	addi	t1,t1,1
    80002dbe:	00668733          	add	a4,a3,t1
    80002dc2:	fea70fa3          	sb	a0,-1(a4)
    80002dc6:	fec319e3          	bne	t1,a2,80002db8 <_ftoa+0x28e>
    80002dca:	b559                	j	80002c50 <_ftoa+0x126>
    80002dcc:	9e0a                	add	t3,t3,sp
    80002dce:	02e00713          	li	a4,46
    80002dd2:	00ee0023          	sb	a4,0(t3)
    80002dd6:	7902                	ld	s2,32(sp)
    80002dd8:	0305                	addi	t1,t1,1
    80002dda:	bde1                	j	80002cb2 <_ftoa+0x188>
    80002ddc:	00c8f713          	andi	a4,a7,12
    80002de0:	c739                	beqz	a4,80002e2e <_ftoa+0x304>
    80002de2:	37fd                	addiw	a5,a5,-1
    80002de4:	0807873b          	zext.w	a4,a5
    80002de8:	f2e362e3          	bltu	t1,a4,80002d0c <_ftoa+0x1e2>
    80002dec:	02000713          	li	a4,32
    80002df0:	f8e30ee3          	beq	t1,a4,80002d8c <_ftoa+0x262>
    80002df4:	0048f713          	andi	a4,a7,4
    80002df8:	cb09                	beqz	a4,80002e0a <_ftoa+0x2e0>
    80002dfa:	00230733          	add	a4,t1,sp
    80002dfe:	02b00613          	li	a2,43
    80002e02:	00c70023          	sb	a2,0(a4)
    80002e06:	0305                	addi	t1,t1,1
    80002e08:	b751                	j	80002d8c <_ftoa+0x262>
    80002e0a:	0088f713          	andi	a4,a7,8
    80002e0e:	df3d                	beqz	a4,80002d8c <_ftoa+0x262>
    80002e10:	02000613          	li	a2,32
    80002e14:	00c30733          	add	a4,t1,a2
    80002e18:	970a                	add	a4,a4,sp
    80002e1a:	fec70023          	sb	a2,-32(a4)
    80002e1e:	0305                	addi	t1,t1,1
    80002e20:	b7b5                	j	80002d8c <_ftoa+0x262>
    80002e22:	00157613          	andi	a2,a0,1
    80002e26:	de0601e3          	beqz	a2,80002c08 <_ftoa+0xde>
    80002e2a:	0505                	addi	a0,a0,1
    80002e2c:	bd85                	j	80002c9c <_ftoa+0x172>
    80002e2e:	0807873b          	zext.w	a4,a5
    80002e32:	ece36de3          	bltu	t1,a4,80002d0c <_ftoa+0x1e2>
    80002e36:	bf99                	j	80002d8c <_ftoa+0x262>
    80002e38:	df95                	beqz	a5,80002d74 <_ftoa+0x24a>
    80002e3a:	d1cd                	beqz	a1,80002ddc <_ftoa+0x2b2>
    80002e3c:	37fd                	addiw	a5,a5,-1
    80002e3e:	0807873b          	zext.w	a4,a5
    80002e42:	ece365e3          	bltu	t1,a4,80002d0c <_ftoa+0x1e2>
    80002e46:	f3031ce3          	bne	t1,a6,80002d7e <_ftoa+0x254>
    80002e4a:	b789                	j	80002d8c <_ftoa+0x262>

Disassembly of section .text._out_char:

0000000080002e4c <_out_char>:
    80002e4c:	e111                	bnez	a0,80002e50 <_out_char+0x4>
    80002e4e:	8082                	ret
    80002e50:	ce2ff06f          	j	80002332 <_putc>

Disassembly of section .text._vsnprintf:

0000000080002e54 <_vsnprintf>:
    80002e54:	7171                	addi	sp,sp,-176
    80002e56:	e94a                	sd	s2,144(sp)
    80002e58:	e54e                	sd	s3,136(sp)
    80002e5a:	e152                	sd	s4,128(sp)
    80002e5c:	fcd6                	sd	s5,120(sp)
    80002e5e:	ece6                	sd	s9,88(sp)
    80002e60:	f506                	sd	ra,168(sp)
    80002e62:	f122                	sd	s0,160(sp)
    80002e64:	e8ea                	sd	s10,80(sp)
    80002e66:	89ae                	mv	s3,a1
    80002e68:	8932                	mv	s2,a2
    80002e6a:	8cb6                	mv	s9,a3
    80002e6c:	8aba                	mv	s5,a4
    80002e6e:	8a2a                	mv	s4,a0
    80002e70:	38058163          	beqz	a1,800031f2 <_vsnprintf+0x39e>
    80002e74:	000cc503          	lbu	a0,0(s9)
    80002e78:	4d01                	li	s10,0
    80002e7a:	38050563          	beqz	a0,80003204 <_vsnprintf+0x3b0>
    80002e7e:	ed26                	sd	s1,152(sp)
    80002e80:	f8da                	sd	s6,112(sp)
    80002e82:	f4de                	sd	s7,104(sp)
    80002e84:	e4ee                	sd	s11,72(sp)
    80002e86:	02500b93          	li	s7,37
    80002e8a:	44c1                	li	s1,16
    80002e8c:	00001d97          	auipc	s11,0x1
    80002e90:	aa0d8d93          	addi	s11,s11,-1376 # 8000392c <__am_mainargs+0x3>
    80002e94:	4b25                	li	s6,9
    80002e96:	a811                	j	80002eaa <_vsnprintf+0x56>
    80002e98:	866a                	mv	a2,s10
    80002e9a:	86ca                	mv	a3,s2
    80002e9c:	85ce                	mv	a1,s3
    80002e9e:	0d05                	addi	s10,s10,1
    80002ea0:	9a02                	jalr	s4
    80002ea2:	000cc503          	lbu	a0,0(s9)
    80002ea6:	12050a63          	beqz	a0,80002fda <_vsnprintf+0x186>
    80002eaa:	0c85                	addi	s9,s9,1
    80002eac:	ff7516e3          	bne	a0,s7,80002e98 <_vsnprintf+0x44>
    80002eb0:	4401                	li	s0,0
    80002eb2:	000cc503          	lbu	a0,0(s9)
    80002eb6:	001c8693          	addi	a3,s9,1
    80002eba:	fe05079b          	addiw	a5,a0,-32
    80002ebe:	0ff7f793          	zext.b	a5,a5
    80002ec2:	00f4e763          	bltu	s1,a5,80002ed0 <_vsnprintf+0x7c>
    80002ec6:	21b7c7b3          	sh2add	a5,a5,s11
    80002eca:	439c                	lw	a5,0(a5)
    80002ecc:	97ee                	add	a5,a5,s11
    80002ece:	8782                	jr	a5
    80002ed0:	fd05079b          	addiw	a5,a0,-48
    80002ed4:	0ff7f793          	zext.b	a5,a5
    80002ed8:	0afb7563          	bgeu	s6,a5,80002f82 <_vsnprintf+0x12e>
    80002edc:	02a00713          	li	a4,42
    80002ee0:	4781                	li	a5,0
    80002ee2:	16e50c63          	beq	a0,a4,8000305a <_vsnprintf+0x206>
    80002ee6:	02e00713          	li	a4,46
    80002eea:	4881                	li	a7,0
    80002eec:	0ce50363          	beq	a0,a4,80002fb2 <_vsnprintf+0x15e>
    80002ef0:	f985071b          	addiw	a4,a0,-104
    80002ef4:	0ff77713          	zext.b	a4,a4
    80002ef8:	4649                	li	a2,18
    80002efa:	04e66a63          	bltu	a2,a4,80002f4e <_vsnprintf+0xfa>
    80002efe:	00001617          	auipc	a2,0x1
    80002f02:	a7260613          	addi	a2,a2,-1422 # 80003970 <__am_mainargs+0x47>
    80002f06:	20c74733          	sh2add	a4,a4,a2
    80002f0a:	4318                	lw	a4,0(a4)
    80002f0c:	9732                	add	a4,a4,a2
    80002f0e:	8702                	jr	a4
    80002f10:	00146413          	ori	s0,s0,1
    80002f14:	2401                	sext.w	s0,s0
    80002f16:	8cb6                	mv	s9,a3
    80002f18:	bf69                	j	80002eb2 <_vsnprintf+0x5e>
    80002f1a:	00246413          	ori	s0,s0,2
    80002f1e:	2401                	sext.w	s0,s0
    80002f20:	8cb6                	mv	s9,a3
    80002f22:	bf41                	j	80002eb2 <_vsnprintf+0x5e>
    80002f24:	00446413          	ori	s0,s0,4
    80002f28:	2401                	sext.w	s0,s0
    80002f2a:	8cb6                	mv	s9,a3
    80002f2c:	b759                	j	80002eb2 <_vsnprintf+0x5e>
    80002f2e:	01046413          	ori	s0,s0,16
    80002f32:	2401                	sext.w	s0,s0
    80002f34:	8cb6                	mv	s9,a3
    80002f36:	bfb5                	j	80002eb2 <_vsnprintf+0x5e>
    80002f38:	00846413          	ori	s0,s0,8
    80002f3c:	2401                	sext.w	s0,s0
    80002f3e:	8cb6                	mv	s9,a3
    80002f40:	bf8d                	j	80002eb2 <_vsnprintf+0x5e>
    80002f42:	001cc503          	lbu	a0,1(s9)
    80002f46:	10046413          	ori	s0,s0,256
    80002f4a:	2401                	sext.w	s0,s0
    80002f4c:	0685                	addi	a3,a3,1
    80002f4e:	06700713          	li	a4,103
    80002f52:	8cb6                	mv	s9,a3
    80002f54:	0aa76d63          	bltu	a4,a0,8000300e <_vsnprintf+0x1ba>
    80002f58:	02400713          	li	a4,36
    80002f5c:	f2a77ee3          	bgeu	a4,a0,80002e98 <_vsnprintf+0x44>
    80002f60:	fdb5071b          	addiw	a4,a0,-37
    80002f64:	0ff77713          	zext.b	a4,a4
    80002f68:	04200693          	li	a3,66
    80002f6c:	f2e6e6e3          	bltu	a3,a4,80002e98 <_vsnprintf+0x44>
    80002f70:	00001697          	auipc	a3,0x1
    80002f74:	a4c68693          	addi	a3,a3,-1460 # 800039bc <__am_mainargs+0x93>
    80002f78:	20d74733          	sh2add	a4,a4,a3
    80002f7c:	4318                	lw	a4,0(a4)
    80002f7e:	9736                	add	a4,a4,a3
    80002f80:	8702                	jr	a4
    80002f82:	4781                	li	a5,0
    80002f84:	0027971b          	slliw	a4,a5,0x2
    80002f88:	9f3d                	addw	a4,a4,a5
    80002f8a:	0017171b          	slliw	a4,a4,0x1
    80002f8e:	9f29                	addw	a4,a4,a0
    80002f90:	0006c503          	lbu	a0,0(a3)
    80002f94:	fd07079b          	addiw	a5,a4,-48
    80002f98:	8cb6                	mv	s9,a3
    80002f9a:	fd05071b          	addiw	a4,a0,-48
    80002f9e:	0ff77713          	zext.b	a4,a4
    80002fa2:	0685                	addi	a3,a3,1
    80002fa4:	feeb70e3          	bgeu	s6,a4,80002f84 <_vsnprintf+0x130>
    80002fa8:	02e00713          	li	a4,46
    80002fac:	4881                	li	a7,0
    80002fae:	f4e511e3          	bne	a0,a4,80002ef0 <_vsnprintf+0x9c>
    80002fb2:	001cc503          	lbu	a0,1(s9)
    80002fb6:	40046413          	ori	s0,s0,1024
    80002fba:	4725                	li	a4,9
    80002fbc:	fd05059b          	addiw	a1,a0,-48
    80002fc0:	0ff5f593          	zext.b	a1,a1
    80002fc4:	2401                	sext.w	s0,s0
    80002fc6:	8636                	mv	a2,a3
    80002fc8:	24b77263          	bgeu	a4,a1,8000320c <_vsnprintf+0x3b8>
    80002fcc:	02a00713          	li	a4,42
    80002fd0:	28e50463          	beq	a0,a4,80003258 <_vsnprintf+0x404>
    80002fd4:	8cb6                	mv	s9,a3
    80002fd6:	0685                	addi	a3,a3,1
    80002fd8:	bf21                	j	80002ef0 <_vsnprintf+0x9c>
    80002fda:	64ea                	ld	s1,152(sp)
    80002fdc:	7b46                	ld	s6,112(sp)
    80002fde:	7ba6                	ld	s7,104(sp)
    80002fe0:	6da6                	ld	s11,72(sp)
    80002fe2:	000d041b          	sext.w	s0,s10
    80002fe6:	012d6463          	bltu	s10,s2,80002fee <_vsnprintf+0x19a>
    80002fea:	fff90d13          	addi	s10,s2,-1
    80002fee:	86ca                	mv	a3,s2
    80002ff0:	866a                	mv	a2,s10
    80002ff2:	85ce                	mv	a1,s3
    80002ff4:	4501                	li	a0,0
    80002ff6:	9a02                	jalr	s4
    80002ff8:	70aa                	ld	ra,168(sp)
    80002ffa:	8522                	mv	a0,s0
    80002ffc:	740a                	ld	s0,160(sp)
    80002ffe:	694a                	ld	s2,144(sp)
    80003000:	69aa                	ld	s3,136(sp)
    80003002:	6a0a                	ld	s4,128(sp)
    80003004:	7ae6                	ld	s5,120(sp)
    80003006:	6ce6                	ld	s9,88(sp)
    80003008:	6d46                	ld	s10,80(sp)
    8000300a:	614d                	addi	sp,sp,176
    8000300c:	8082                	ret
    8000300e:	f975071b          	addiw	a4,a0,-105
    80003012:	0ff77713          	zext.b	a4,a4
    80003016:	46bd                	li	a3,15
    80003018:	e8e6e0e3          	bltu	a3,a4,80002e98 <_vsnprintf+0x44>
    8000301c:	66a5                	lui	a3,0x9
    8000301e:	04168693          	addi	a3,a3,65 # 9041 <i+0x9021>
    80003022:	48e6d6b3          	bext	a3,a3,a4
    80003026:	20069a63          	bnez	a3,8000323a <_vsnprintf+0x3e6>
    8000302a:	46a9                	li	a3,10
    8000302c:	04d70163          	beq	a4,a3,8000306e <_vsnprintf+0x21a>
    80003030:	479d                	li	a5,7
    80003032:	e6f713e3          	bne	a4,a5,80002e98 <_vsnprintf+0x44>
    80003036:	000ab703          	ld	a4,0(s5)
    8000303a:	02146793          	ori	a5,s0,33
    8000303e:	2781                	sext.w	a5,a5
    80003040:	4841                	li	a6,16
    80003042:	866a                	mv	a2,s10
    80003044:	e43e                	sd	a5,8(sp)
    80003046:	e042                	sd	a6,0(sp)
    80003048:	4781                	li	a5,0
    8000304a:	86ca                	mv	a3,s2
    8000304c:	85ce                	mv	a1,s3
    8000304e:	8552                	mv	a0,s4
    80003050:	c38ff0ef          	jal	80002488 <_ntoa_long>
    80003054:	0aa1                	addi	s5,s5,8
    80003056:	8d2a                	mv	s10,a0
    80003058:	b5a9                	j	80002ea2 <_vsnprintf+0x4e>
    8000305a:	000aa783          	lw	a5,0(s5)
    8000305e:	0aa1                	addi	s5,s5,8
    80003060:	0807ce63          	bltz	a5,800030fc <_vsnprintf+0x2a8>
    80003064:	001cc503          	lbu	a0,1(s9)
    80003068:	8cb6                	mv	s9,a3
    8000306a:	0685                	addi	a3,a3,1
    8000306c:	bdad                	j	80002ee6 <_vsnprintf+0x92>
    8000306e:	008a8713          	addi	a4,s5,8
    80003072:	fc3a                	sd	a4,56(sp)
    80003074:	000ab703          	ld	a4,0(s5)
    80003078:	f0e2                	sd	s8,96(sp)
    8000307a:	56fd                	li	a3,-1
    8000307c:	f43a                	sd	a4,40(sp)
    8000307e:	00088463          	beqz	a7,80003086 <_vsnprintf+0x232>
    80003082:	080886bb          	zext.w	a3,a7
    80003086:	7aa2                	ld	s5,40(sp)
    80003088:	000ac503          	lbu	a0,0(s5)
    8000308c:	96d6                	add	a3,a3,s5
    8000308e:	3c050d63          	beqz	a0,80003468 <_vsnprintf+0x614>
    80003092:	00da8663          	beq	s5,a3,8000309e <_vsnprintf+0x24a>
    80003096:	001ac703          	lbu	a4,1(s5)
    8000309a:	0a85                	addi	s5,s5,1
    8000309c:	fb7d                	bnez	a4,80003092 <_vsnprintf+0x23e>
    8000309e:	7722                	ld	a4,40(sp)
    800030a0:	40ea873b          	subw	a4,s5,a4
    800030a4:	f83a                	sd	a4,48(sp)
    800030a6:	40047a93          	andi	s5,s0,1024
    800030aa:	000a8763          	beqz	s5,800030b8 <_vsnprintf+0x264>
    800030ae:	7742                	ld	a4,48(sp)
    800030b0:	0ae8d733          	minu	a4,a7,a4
    800030b4:	2701                	sext.w	a4,a4
    800030b6:	f83a                	sd	a4,48(sp)
    800030b8:	8809                	andi	s0,s0,2
    800030ba:	1c040263          	beqz	s0,8000327e <_vsnprintf+0x42a>
    800030be:	4409                	li	s0,2
    800030c0:	8c6a                	mv	s8,s10
    800030c2:	000a8763          	beqz	s5,800030d0 <_vsnprintf+0x27c>
    800030c6:	fff8871b          	addiw	a4,a7,-1
    800030ca:	02088363          	beqz	a7,800030f0 <_vsnprintf+0x29c>
    800030ce:	88ba                	mv	a7,a4
    800030d0:	f046                	sd	a7,32(sp)
    800030d2:	ec3e                	sd	a5,24(sp)
    800030d4:	8662                	mv	a2,s8
    800030d6:	86ca                	mv	a3,s2
    800030d8:	85ce                	mv	a1,s3
    800030da:	9a02                	jalr	s4
    800030dc:	77a2                	ld	a5,40(sp)
    800030de:	0c05                	addi	s8,s8,1
    800030e0:	41ac0733          	sub	a4,s8,s10
    800030e4:	973e                	add	a4,a4,a5
    800030e6:	00074503          	lbu	a0,0(a4)
    800030ea:	67e2                	ld	a5,24(sp)
    800030ec:	7882                	ld	a7,32(sp)
    800030ee:	f971                	bnez	a0,800030c2 <_vsnprintf+0x26e>
    800030f0:	30041163          	bnez	s0,800033f2 <_vsnprintf+0x59e>
    800030f4:	8d62                	mv	s10,s8
    800030f6:	7ae2                	ld	s5,56(sp)
    800030f8:	7c06                	ld	s8,96(sp)
    800030fa:	b365                	j	80002ea2 <_vsnprintf+0x4e>
    800030fc:	00246413          	ori	s0,s0,2
    80003100:	001cc503          	lbu	a0,1(s9)
    80003104:	2401                	sext.w	s0,s0
    80003106:	8cb6                	mv	s9,a3
    80003108:	40f007bb          	negw	a5,a5
    8000310c:	0685                	addi	a3,a3,1
    8000310e:	bbe1                	j	80002ee6 <_vsnprintf+0x92>
    80003110:	001cc503          	lbu	a0,1(s9)
    80003114:	06c00713          	li	a4,108
    80003118:	e2e517e3          	bne	a0,a4,80002f46 <_vsnprintf+0xf2>
    8000311c:	30046413          	ori	s0,s0,768
    80003120:	002cc503          	lbu	a0,2(s9)
    80003124:	2401                	sext.w	s0,s0
    80003126:	003c8693          	addi	a3,s9,3
    8000312a:	b515                	j	80002f4e <_vsnprintf+0xfa>
    8000312c:	001cc503          	lbu	a0,1(s9)
    80003130:	06800713          	li	a4,104
    80003134:	26e50163          	beq	a0,a4,80003396 <_vsnprintf+0x542>
    80003138:	08046413          	ori	s0,s0,128
    8000313c:	2401                	sext.w	s0,s0
    8000313e:	0685                	addi	a3,a3,1
    80003140:	b539                	j	80002f4e <_vsnprintf+0xfa>
    80003142:	06700713          	li	a4,103
    80003146:	12e50863          	beq	a0,a4,80003276 <_vsnprintf+0x422>
    8000314a:	04700713          	li	a4,71
    8000314e:	22e50d63          	beq	a0,a4,80003388 <_vsnprintf+0x534>
    80003152:	04500713          	li	a4,69
    80003156:	22e50c63          	beq	a0,a4,8000338e <_vsnprintf+0x53a>
    8000315a:	000ab507          	fld	fa0,0(s5)
    8000315e:	866a                	mv	a2,s10
    80003160:	8822                	mv	a6,s0
    80003162:	8746                	mv	a4,a7
    80003164:	86ca                	mv	a3,s2
    80003166:	85ce                	mv	a1,s3
    80003168:	8552                	mv	a0,s4
    8000316a:	eb2ff0ef          	jal	8000281c <_etoa>
    8000316e:	0aa1                	addi	s5,s5,8
    80003170:	8d2a                	mv	s10,a0
    80003172:	bb05                	j	80002ea2 <_vsnprintf+0x4e>
    80003174:	04600713          	li	a4,70
    80003178:	0ee50b63          	beq	a0,a4,8000326e <_vsnprintf+0x41a>
    8000317c:	000ab507          	fld	fa0,0(s5)
    80003180:	866a                	mv	a2,s10
    80003182:	8822                	mv	a6,s0
    80003184:	8746                	mv	a4,a7
    80003186:	86ca                	mv	a3,s2
    80003188:	85ce                	mv	a1,s3
    8000318a:	8552                	mv	a0,s4
    8000318c:	99fff0ef          	jal	80002b2a <_ftoa>
    80003190:	0aa1                	addi	s5,s5,8
    80003192:	8d2a                	mv	s10,a0
    80003194:	b339                	j	80002ea2 <_vsnprintf+0x4e>
    80003196:	008a8713          	addi	a4,s5,8
    8000319a:	f0e2                	sd	s8,96(sp)
    8000319c:	00247813          	andi	a6,s0,2
    800031a0:	ec3a                	sd	a4,24(sp)
    800031a2:	001d0c13          	addi	s8,s10,1
    800031a6:	20080563          	beqz	a6,800033b0 <_vsnprintf+0x55c>
    800031aa:	000ac503          	lbu	a0,0(s5)
    800031ae:	f03e                	sd	a5,32(sp)
    800031b0:	86ca                	mv	a3,s2
    800031b2:	866a                	mv	a2,s10
    800031b4:	85ce                	mv	a1,s3
    800031b6:	9a02                	jalr	s4
    800031b8:	7782                	ld	a5,32(sp)
    800031ba:	4705                	li	a4,1
    800031bc:	2cf77663          	bgeu	a4,a5,80003488 <_vsnprintf+0x634>
    800031c0:	37f9                	addiw	a5,a5,-2
    800031c2:	002d0e13          	addi	t3,s10,2
    800031c6:	09c78d3b          	add.uw	s10,a5,t3
    800031ca:	8662                	mv	a2,s8
    800031cc:	86ca                	mv	a3,s2
    800031ce:	0c05                	addi	s8,s8,1
    800031d0:	85ce                	mv	a1,s3
    800031d2:	02000513          	li	a0,32
    800031d6:	9a02                	jalr	s4
    800031d8:	ffac19e3          	bne	s8,s10,800031ca <_vsnprintf+0x376>
    800031dc:	6ae2                	ld	s5,24(sp)
    800031de:	7c06                	ld	s8,96(sp)
    800031e0:	b1c9                	j	80002ea2 <_vsnprintf+0x4e>
    800031e2:	866a                	mv	a2,s10
    800031e4:	86ca                	mv	a3,s2
    800031e6:	85ce                	mv	a1,s3
    800031e8:	02500513          	li	a0,37
    800031ec:	0d05                	addi	s10,s10,1
    800031ee:	9a02                	jalr	s4
    800031f0:	b94d                	j	80002ea2 <_vsnprintf+0x4e>
    800031f2:	000cc503          	lbu	a0,0(s9)
    800031f6:	fffffa17          	auipc	s4,0xfffff
    800031fa:	1d0a0a13          	addi	s4,s4,464 # 800023c6 <_out_null>
    800031fe:	4d01                	li	s10,0
    80003200:	c6051fe3          	bnez	a0,80002e7e <_vsnprintf+0x2a>
    80003204:	4401                	li	s0,0
    80003206:	df2d64e3          	bltu	s10,s2,80002fee <_vsnprintf+0x19a>
    8000320a:	b3c5                	j	80002fea <_vsnprintf+0x196>
    8000320c:	86ba                	mv	a3,a4
    8000320e:	0028971b          	slliw	a4,a7,0x2
    80003212:	0117073b          	addw	a4,a4,a7
    80003216:	0605                	addi	a2,a2,1
    80003218:	0017171b          	slliw	a4,a4,0x1
    8000321c:	9f29                	addw	a4,a4,a0
    8000321e:	00064503          	lbu	a0,0(a2)
    80003222:	fd07089b          	addiw	a7,a4,-48
    80003226:	fd05071b          	addiw	a4,a0,-48
    8000322a:	0ff77713          	zext.b	a4,a4
    8000322e:	fee6f0e3          	bgeu	a3,a4,8000320e <_vsnprintf+0x3ba>
    80003232:	8cb2                	mv	s9,a2
    80003234:	00160693          	addi	a3,a2,1
    80003238:	b965                	j	80002ef0 <_vsnprintf+0x9c>
    8000323a:	06f00713          	li	a4,111
    8000323e:	08e50663          	beq	a0,a4,800032ca <_vsnprintf+0x476>
    80003242:	26a77963          	bgeu	a4,a0,800034b4 <_vsnprintf+0x660>
    80003246:	07800713          	li	a4,120
    8000324a:	4841                	li	a6,16
    8000324c:	08e50063          	beq	a0,a4,800032cc <_vsnprintf+0x478>
    80003250:	983d                	andi	s0,s0,-17
    80003252:	2401                	sext.w	s0,s0
    80003254:	4829                	li	a6,10
    80003256:	a89d                	j	800032cc <_vsnprintf+0x478>
    80003258:	000aa883          	lw	a7,0(s5)
    8000325c:	002cc503          	lbu	a0,2(s9)
    80003260:	0c89                	addi	s9,s9,2
    80003262:	001c8693          	addi	a3,s9,1
    80003266:	0a08e8b3          	max	a7,a7,zero
    8000326a:	0aa1                	addi	s5,s5,8
    8000326c:	b151                	j	80002ef0 <_vsnprintf+0x9c>
    8000326e:	02046413          	ori	s0,s0,32
    80003272:	2401                	sext.w	s0,s0
    80003274:	b721                	j	8000317c <_vsnprintf+0x328>
    80003276:	28b41413          	bseti	s0,s0,0xb
    8000327a:	2401                	sext.w	s0,s0
    8000327c:	bdf9                	j	8000315a <_vsnprintf+0x306>
    8000327e:	7742                	ld	a4,48(sp)
    80003280:	26f77f63          	bgeu	a4,a5,800034fe <_vsnprintf+0x6aa>
    80003284:	7742                	ld	a4,48(sp)
    80003286:	fff7881b          	addiw	a6,a5,-1
    8000328a:	001d0413          	addi	s0,s10,1
    8000328e:	40e8083b          	subw	a6,a6,a4
    80003292:	08880c3b          	add.uw	s8,a6,s0
    80003296:	a011                	j	8000329a <_vsnprintf+0x446>
    80003298:	0405                	addi	s0,s0,1
    8000329a:	f046                	sd	a7,32(sp)
    8000329c:	ec3e                	sd	a5,24(sp)
    8000329e:	866a                	mv	a2,s10
    800032a0:	86ca                	mv	a3,s2
    800032a2:	85ce                	mv	a1,s3
    800032a4:	02000513          	li	a0,32
    800032a8:	9a02                	jalr	s4
    800032aa:	67e2                	ld	a5,24(sp)
    800032ac:	7882                	ld	a7,32(sp)
    800032ae:	8d22                	mv	s10,s0
    800032b0:	ff8414e3          	bne	s0,s8,80003298 <_vsnprintf+0x444>
    800032b4:	7722                	ld	a4,40(sp)
    800032b6:	00074503          	lbu	a0,0(a4)
    800032ba:	0017871b          	addiw	a4,a5,1
    800032be:	f83a                	sd	a4,48(sp)
    800032c0:	e2050ae3          	beqz	a0,800030f4 <_vsnprintf+0x2a0>
    800032c4:	4401                	li	s0,0
    800032c6:	8c6a                	mv	s8,s10
    800032c8:	bbed                	j	800030c2 <_vsnprintf+0x26e>
    800032ca:	4821                	li	a6,8
    800032cc:	40047713          	andi	a4,s0,1024
    800032d0:	14070963          	beqz	a4,80003422 <_vsnprintf+0x5ce>
    800032d4:	ff247693          	andi	a3,s0,-14
    800032d8:	2681                	sext.w	a3,a3
    800032da:	2006f713          	andi	a4,a3,512
    800032de:	008a8413          	addi	s0,s5,8
    800032e2:	85b6                	mv	a1,a3
    800032e4:	1a071463          	bnez	a4,8000348c <_vsnprintf+0x638>
    800032e8:	1006f713          	andi	a4,a3,256
    800032ec:	1e071063          	bnez	a4,800034cc <_vsnprintf+0x678>
    800032f0:	0406f713          	andi	a4,a3,64
    800032f4:	16071763          	bnez	a4,80003462 <_vsnprintf+0x60e>
    800032f8:	0805f593          	andi	a1,a1,128
    800032fc:	1e058263          	beqz	a1,800034e0 <_vsnprintf+0x68c>
    80003300:	000ad703          	lhu	a4,0(s5)
    80003304:	e436                	sd	a3,8(sp)
    80003306:	e03e                	sd	a5,0(sp)
    80003308:	0807073b          	zext.w	a4,a4
    8000330c:	866a                	mv	a2,s10
    8000330e:	4781                	li	a5,0
    80003310:	a0a5                	j	80003378 <_vsnprintf+0x524>
    80003312:	05800713          	li	a4,88
    80003316:	08e50863          	beq	a0,a4,800033a6 <_vsnprintf+0x552>
    8000331a:	06200713          	li	a4,98
    8000331e:	4809                	li	a6,2
    80003320:	fae506e3          	beq	a0,a4,800032cc <_vsnprintf+0x478>
    80003324:	40047713          	andi	a4,s0,1024
    80003328:	12070963          	beqz	a4,8000345a <_vsnprintf+0x606>
    8000332c:	fee47693          	andi	a3,s0,-18
    80003330:	2681                	sext.w	a3,a3
    80003332:	2006f713          	andi	a4,a3,512
    80003336:	008a8413          	addi	s0,s5,8
    8000333a:	85b6                	mv	a1,a3
    8000333c:	e77d                	bnez	a4,8000342a <_vsnprintf+0x5d6>
    8000333e:	1006f713          	andi	a4,a3,256
    80003342:	14071c63          	bnez	a4,8000349a <_vsnprintf+0x646>
    80003346:	0406f713          	andi	a4,a3,64
    8000334a:	000aa603          	lw	a2,0(s5)
    8000334e:	10071263          	bnez	a4,80003452 <_vsnprintf+0x5fe>
    80003352:	0805f593          	andi	a1,a1,128
    80003356:	18058063          	beqz	a1,800034d6 <_vsnprintf+0x682>
    8000335a:	60561613          	sext.h	a2,a2
    8000335e:	40f6559b          	sraiw	a1,a2,0xf
    80003362:	00b64733          	xor	a4,a2,a1
    80003366:	9f0d                	subw	a4,a4,a1
    80003368:	0807473b          	zext.h	a4,a4
    8000336c:	e03e                	sd	a5,0(sp)
    8000336e:	e436                	sd	a3,8(sp)
    80003370:	01f6579b          	srliw	a5,a2,0x1f
    80003374:	4829                	li	a6,10
    80003376:	866a                	mv	a2,s10
    80003378:	86ca                	mv	a3,s2
    8000337a:	85ce                	mv	a1,s3
    8000337c:	8552                	mv	a0,s4
    8000337e:	90aff0ef          	jal	80002488 <_ntoa_long>
    80003382:	8aa2                	mv	s5,s0
    80003384:	8d2a                	mv	s10,a0
    80003386:	be31                	j	80002ea2 <_vsnprintf+0x4e>
    80003388:	28b41413          	bseti	s0,s0,0xb
    8000338c:	2401                	sext.w	s0,s0
    8000338e:	02046413          	ori	s0,s0,32
    80003392:	2401                	sext.w	s0,s0
    80003394:	b3d9                	j	8000315a <_vsnprintf+0x306>
    80003396:	0c046413          	ori	s0,s0,192
    8000339a:	002cc503          	lbu	a0,2(s9)
    8000339e:	2401                	sext.w	s0,s0
    800033a0:	003c8693          	addi	a3,s9,3
    800033a4:	b66d                	j	80002f4e <_vsnprintf+0xfa>
    800033a6:	02046413          	ori	s0,s0,32
    800033aa:	2401                	sext.w	s0,s0
    800033ac:	4841                	li	a6,16
    800033ae:	bf39                	j	800032cc <_vsnprintf+0x478>
    800033b0:	4705                	li	a4,1
    800033b2:	0cf77563          	bgeu	a4,a5,8000347c <_vsnprintf+0x628>
    800033b6:	37f9                	addiw	a5,a5,-2
    800033b8:	09878c3b          	add.uw	s8,a5,s8
    800033bc:	080787bb          	zext.w	a5,a5
    800033c0:	f03e                	sd	a5,32(sp)
    800033c2:	846a                	mv	s0,s10
    800033c4:	8622                	mv	a2,s0
    800033c6:	86ca                	mv	a3,s2
    800033c8:	0405                	addi	s0,s0,1
    800033ca:	85ce                	mv	a1,s3
    800033cc:	02000513          	li	a0,32
    800033d0:	9a02                	jalr	s4
    800033d2:	fe8c19e3          	bne	s8,s0,800033c4 <_vsnprintf+0x570>
    800033d6:	000ac503          	lbu	a0,0(s5)
    800033da:	7782                	ld	a5,32(sp)
    800033dc:	002d0e13          	addi	t3,s10,2
    800033e0:	8662                	mv	a2,s8
    800033e2:	86ca                	mv	a3,s2
    800033e4:	85ce                	mv	a1,s3
    800033e6:	01c78d33          	add	s10,a5,t3
    800033ea:	9a02                	jalr	s4
    800033ec:	6ae2                	ld	s5,24(sp)
    800033ee:	7c06                	ld	s8,96(sp)
    800033f0:	bc4d                	j	80002ea2 <_vsnprintf+0x4e>
    800033f2:	8d62                	mv	s10,s8
    800033f4:	7742                	ld	a4,48(sp)
    800033f6:	10f77263          	bgeu	a4,a5,800034fa <_vsnprintf+0x6a6>
    800033fa:	fff7881b          	addiw	a6,a5,-1
    800033fe:	40e8083b          	subw	a6,a6,a4
    80003402:	001d0413          	addi	s0,s10,1
    80003406:	08880c3b          	add.uw	s8,a6,s0
    8000340a:	a011                	j	8000340e <_vsnprintf+0x5ba>
    8000340c:	0405                	addi	s0,s0,1
    8000340e:	866a                	mv	a2,s10
    80003410:	86ca                	mv	a3,s2
    80003412:	85ce                	mv	a1,s3
    80003414:	02000513          	li	a0,32
    80003418:	8d22                	mv	s10,s0
    8000341a:	9a02                	jalr	s4
    8000341c:	fe8c18e3          	bne	s8,s0,8000340c <_vsnprintf+0x5b8>
    80003420:	b9d1                	j	800030f4 <_vsnprintf+0x2a0>
    80003422:	ff347693          	andi	a3,s0,-13
    80003426:	2681                	sext.w	a3,a3
    80003428:	bd4d                	j	800032da <_vsnprintf+0x486>
    8000342a:	000ab583          	ld	a1,0(s5)
    8000342e:	866a                	mv	a2,s10
    80003430:	e03e                	sd	a5,0(sp)
    80003432:	40b00733          	neg	a4,a1
    80003436:	e436                	sd	a3,8(sp)
    80003438:	0ae5e733          	max	a4,a1,a4
    8000343c:	03f5d793          	srli	a5,a1,0x3f
    80003440:	4829                	li	a6,10
    80003442:	86ca                	mv	a3,s2
    80003444:	85ce                	mv	a1,s3
    80003446:	8552                	mv	a0,s4
    80003448:	840ff0ef          	jal	80002488 <_ntoa_long>
    8000344c:	8aa2                	mv	s5,s0
    8000344e:	8d2a                	mv	s10,a0
    80003450:	bc89                	j	80002ea2 <_vsnprintf+0x4e>
    80003452:	0ff67613          	zext.b	a2,a2
    80003456:	8732                	mv	a4,a2
    80003458:	bf11                	j	8000336c <_vsnprintf+0x518>
    8000345a:	fef47693          	andi	a3,s0,-17
    8000345e:	2681                	sext.w	a3,a3
    80003460:	bdc9                	j	80003332 <_vsnprintf+0x4de>
    80003462:	000ac703          	lbu	a4,0(s5)
    80003466:	bd79                	j	80003304 <_vsnprintf+0x4b0>
    80003468:	40047713          	andi	a4,s0,1024
    8000346c:	f83a                	sd	a4,48(sp)
    8000346e:	cf3d                	beqz	a4,800034ec <_vsnprintf+0x698>
    80003470:	00247813          	andi	a6,s0,2
    80003474:	08080963          	beqz	a6,80003506 <_vsnprintf+0x6b2>
    80003478:	f802                	sd	zero,48(sp)
    8000347a:	bfad                	j	800033f4 <_vsnprintf+0x5a0>
    8000347c:	000ac503          	lbu	a0,0(s5)
    80003480:	866a                	mv	a2,s10
    80003482:	86ca                	mv	a3,s2
    80003484:	85ce                	mv	a1,s3
    80003486:	9a02                	jalr	s4
    80003488:	8d62                	mv	s10,s8
    8000348a:	bb89                	j	800031dc <_vsnprintf+0x388>
    8000348c:	000ab703          	ld	a4,0(s5)
    80003490:	866a                	mv	a2,s10
    80003492:	e03e                	sd	a5,0(sp)
    80003494:	e436                	sd	a3,8(sp)
    80003496:	4781                	li	a5,0
    80003498:	b76d                	j	80003442 <_vsnprintf+0x5ee>
    8000349a:	000ab583          	ld	a1,0(s5)
    8000349e:	866a                	mv	a2,s10
    800034a0:	e03e                	sd	a5,0(sp)
    800034a2:	40b00733          	neg	a4,a1
    800034a6:	e436                	sd	a3,8(sp)
    800034a8:	0ae5e733          	max	a4,a1,a4
    800034ac:	03f5d793          	srli	a5,a1,0x3f
    800034b0:	4829                	li	a6,10
    800034b2:	b5d9                	j	80003378 <_vsnprintf+0x524>
    800034b4:	fef47693          	andi	a3,s0,-17
    800034b8:	06900713          	li	a4,105
    800034bc:	2681                	sext.w	a3,a3
    800034be:	02e51463          	bne	a0,a4,800034e6 <_vsnprintf+0x692>
    800034c2:	40047713          	andi	a4,s0,1024
    800034c6:	e60706e3          	beqz	a4,80003332 <_vsnprintf+0x4de>
    800034ca:	b58d                	j	8000332c <_vsnprintf+0x4d8>
    800034cc:	000ab703          	ld	a4,0(s5)
    800034d0:	e436                	sd	a3,8(sp)
    800034d2:	e03e                	sd	a5,0(sp)
    800034d4:	bd25                	j	8000330c <_vsnprintf+0x4b8>
    800034d6:	40c0073b          	negw	a4,a2
    800034da:	0ac76733          	max	a4,a4,a2
    800034de:	b579                	j	8000336c <_vsnprintf+0x518>
    800034e0:	000aa703          	lw	a4,0(s5)
    800034e4:	b505                	j	80003304 <_vsnprintf+0x4b0>
    800034e6:	8436                	mv	s0,a3
    800034e8:	4829                	li	a6,10
    800034ea:	b3cd                	j	800032cc <_vsnprintf+0x478>
    800034ec:	00247a93          	andi	s5,s0,2
    800034f0:	f00a92e3          	bnez	s5,800033f4 <_vsnprintf+0x5a0>
    800034f4:	f802                	sd	zero,48(sp)
    800034f6:	d80797e3          	bnez	a5,80003284 <_vsnprintf+0x430>
    800034fa:	8c6a                	mv	s8,s10
    800034fc:	bee5                	j	800030f4 <_vsnprintf+0x2a0>
    800034fe:	2705                	addiw	a4,a4,1
    80003500:	f83a                	sd	a4,48(sp)
    80003502:	8c6a                	mv	s8,s10
    80003504:	be7d                	j	800030c2 <_vsnprintf+0x26e>
    80003506:	40000a93          	li	s5,1024
    8000350a:	b7ed                	j	800034f4 <_vsnprintf+0x6a0>

Disassembly of section .text.printf_:

000000008000350c <printf_>:
    8000350c:	711d                	addi	sp,sp,-96
    8000350e:	02810313          	addi	t1,sp,40
    80003512:	f42e                	sd	a1,40(sp)
    80003514:	f832                	sd	a2,48(sp)
    80003516:	fc36                	sd	a3,56(sp)
    80003518:	e0ba                	sd	a4,64(sp)
    8000351a:	86aa                	mv	a3,a0
    8000351c:	858a                	mv	a1,sp
    8000351e:	871a                	mv	a4,t1
    80003520:	567d                	li	a2,-1
    80003522:	00000517          	auipc	a0,0x0
    80003526:	92a50513          	addi	a0,a0,-1750 # 80002e4c <_out_char>
    8000352a:	ec06                	sd	ra,24(sp)
    8000352c:	e4be                	sd	a5,72(sp)
    8000352e:	e8c2                	sd	a6,80(sp)
    80003530:	ecc6                	sd	a7,88(sp)
    80003532:	e41a                	sd	t1,8(sp)
    80003534:	921ff0ef          	jal	80002e54 <_vsnprintf>
    80003538:	60e2                	ld	ra,24(sp)
    8000353a:	6125                	addi	sp,sp,96
    8000353c:	8082                	ret

Disassembly of section .text.uptime:

000000008000353e <uptime>:
    8000353e:	1101                	addi	sp,sp,-32
    80003540:	46a1                	li	a3,8
    80003542:	652d                	lui	a0,0xb
    80003544:	00d10633          	add	a2,sp,a3
    80003548:	c0350513          	addi	a0,a0,-1021 # ac03 <i+0xabe3>
    8000354c:	4585                	li	a1,1
    8000354e:	ec06                	sd	ra,24(sp)
    80003550:	00c000ef          	jal	8000355c <_io_read>
    80003554:	60e2                	ld	ra,24(sp)
    80003556:	4532                	lw	a0,12(sp)
    80003558:	6105                	addi	sp,sp,32
    8000355a:	8082                	ret

Disassembly of section .text._io_read:

000000008000355c <_io_read>:
    8000355c:	672d                	lui	a4,0xb
    8000355e:	87aa                	mv	a5,a0
    80003560:	c0270713          	addi	a4,a4,-1022 # ac02 <i+0xabe2>
    80003564:	852e                	mv	a0,a1
    80003566:	85b2                	mv	a1,a2
    80003568:	8636                	mv	a2,a3
    8000356a:	00e78a63          	beq	a5,a4,8000357e <_io_read+0x22>
    8000356e:	672d                	lui	a4,0xb
    80003570:	c0370713          	addi	a4,a4,-1021 # ac03 <i+0xabe3>
    80003574:	00e78463          	beq	a5,a4,8000357c <_io_read+0x20>
    80003578:	4501                	li	a0,0
    8000357a:	8082                	ret
    8000357c:	aacd                	j	8000376e <__am_timer_read>
    8000357e:	a009                	j	80003580 <__am_input_read>

Disassembly of section .text.__am_input_read:

0000000080003580 <__am_input_read>:
    80003580:	4785                	li	a5,1
    80003582:	00f50463          	beq	a0,a5,8000358a <__am_input_read+0xa>
    80003586:	4501                	li	a0,0
    80003588:	8082                	ret
    8000358a:	1101                	addi	sp,sp,-32
    8000358c:	00001797          	auipc	a5,0x1
    80003590:	8687a783          	lw	a5,-1944(a5) # 80003df4 <last_release.2>
    80003594:	e822                	sd	s0,16(sp)
    80003596:	e426                	sd	s1,8(sp)
    80003598:	e04a                	sd	s2,0(sp)
    8000359a:	ec06                	sd	ra,24(sp)
    8000359c:	00058023          	sb	zero,0(a1)
    800035a0:	000580a3          	sb	zero,1(a1)
    800035a4:	00058123          	sb	zero,2(a1)
    800035a8:	000581a3          	sb	zero,3(a1)
    800035ac:	00058223          	sb	zero,4(a1)
    800035b0:	000582a3          	sb	zero,5(a1)
    800035b4:	00058323          	sb	zero,6(a1)
    800035b8:	000583a3          	sb	zero,7(a1)
    800035bc:	84aa                	mv	s1,a0
    800035be:	842e                	mv	s0,a1
    800035c0:	00001917          	auipc	s2,0x1
    800035c4:	83490913          	addi	s2,s2,-1996 # 80003df4 <last_release.2>
    800035c8:	ebe9                	bnez	a5,8000369a <__am_input_read+0x11a>
    800035ca:	de1fe0ef          	jal	800023aa <__am_uartlite_getchar>
    800035ce:	0ff00793          	li	a5,255
    800035d2:	06f50363          	beq	a0,a5,80003638 <__am_input_read+0xb8>
    800035d6:	07f00793          	li	a5,127
    800035da:	16a7eb63          	bltu	a5,a0,80003750 <__am_input_read+0x1d0>
    800035de:	00000797          	auipc	a5,0x0
    800035e2:	53a78793          	addi	a5,a5,1338 # 80003b18 <am_keycode>
    800035e6:	20f54533          	sh2add	a0,a0,a5
    800035ea:	411c                	lw	a5,0(a0)
    800035ec:	c7b1                	beqz	a5,80003638 <__am_input_read+0xb8>
    800035ee:	00001717          	auipc	a4,0x1
    800035f2:	80272703          	lw	a4,-2046(a4) # 80003df0 <last_key.1>
    800035f6:	00000697          	auipc	a3,0x0
    800035fa:	7fa68693          	addi	a3,a3,2042 # 80003df0 <last_key.1>
    800035fe:	cb29                	beqz	a4,80003650 <__am_input_read+0xd0>
    80003600:	04e78863          	beq	a5,a4,80003650 <__am_input_read+0xd0>
    80003604:	0087551b          	srliw	a0,a4,0x8
    80003608:	0107559b          	srliw	a1,a4,0x10
    8000360c:	0187561b          	srliw	a2,a4,0x18
    80003610:	00040023          	sb	zero,0(s0)
    80003614:	000400a3          	sb	zero,1(s0)
    80003618:	00040123          	sb	zero,2(s0)
    8000361c:	000401a3          	sb	zero,3(s0)
    80003620:	00e40223          	sb	a4,4(s0)
    80003624:	c29c                	sw	a5,0(a3)
    80003626:	00992023          	sw	s1,0(s2)
    8000362a:	00a402a3          	sb	a0,5(s0)
    8000362e:	00b40323          	sb	a1,6(s0)
    80003632:	00c403a3          	sb	a2,7(s0)
    80003636:	a031                	j	80003642 <__am_input_read+0xc2>
    80003638:	00000797          	auipc	a5,0x0
    8000363c:	7b87a783          	lw	a5,1976(a5) # 80003df0 <last_key.1>
    80003640:	ebc5                	bnez	a5,800036f0 <__am_input_read+0x170>
    80003642:	60e2                	ld	ra,24(sp)
    80003644:	6442                	ld	s0,16(sp)
    80003646:	64a2                	ld	s1,8(sp)
    80003648:	6902                	ld	s2,0(sp)
    8000364a:	4521                	li	a0,8
    8000364c:	6105                	addi	sp,sp,32
    8000364e:	8082                	ret
    80003650:	0087d59b          	srliw	a1,a5,0x8
    80003654:	0107d61b          	srliw	a2,a5,0x10
    80003658:	0187d71b          	srliw	a4,a5,0x18
    8000365c:	4505                	li	a0,1
    8000365e:	00f40223          	sb	a5,4(s0)
    80003662:	000400a3          	sb	zero,1(s0)
    80003666:	00040123          	sb	zero,2(s0)
    8000366a:	000401a3          	sb	zero,3(s0)
    8000366e:	00a40023          	sb	a0,0(s0)
    80003672:	00b402a3          	sb	a1,5(s0)
    80003676:	00c40323          	sb	a2,6(s0)
    8000367a:	00e403a3          	sb	a4,7(s0)
    8000367e:	c29c                	sw	a5,0(a3)
    80003680:	00000797          	auipc	a5,0x0
    80003684:	7607aa23          	sw	zero,1908(a5) # 80003df4 <last_release.2>
    80003688:	eb7ff0ef          	jal	8000353e <uptime>
    8000368c:	0805053b          	zext.w	a0,a0
    80003690:	00000797          	auipc	a5,0x0
    80003694:	74a7bc23          	sd	a0,1880(a5) # 80003de8 <timestamp.0>
    80003698:	b76d                	j	80003642 <__am_input_read+0xc2>
    8000369a:	00000797          	auipc	a5,0x0
    8000369e:	7567a783          	lw	a5,1878(a5) # 80003df0 <last_key.1>
    800036a2:	00000717          	auipc	a4,0x0
    800036a6:	74e74703          	lbu	a4,1870(a4) # 80003df0 <last_key.1>
    800036aa:	00a58023          	sb	a0,0(a1)
    800036ae:	0087d61b          	srliw	a2,a5,0x8
    800036b2:	0107d69b          	srliw	a3,a5,0x10
    800036b6:	0187d79b          	srliw	a5,a5,0x18
    800036ba:	00f583a3          	sb	a5,7(a1)
    800036be:	00c582a3          	sb	a2,5(a1)
    800036c2:	00d58323          	sb	a3,6(a1)
    800036c6:	00e58223          	sb	a4,4(a1)
    800036ca:	00000797          	auipc	a5,0x0
    800036ce:	7207a523          	sw	zero,1834(a5) # 80003df4 <last_release.2>
    800036d2:	e6dff0ef          	jal	8000353e <uptime>
    800036d6:	60e2                	ld	ra,24(sp)
    800036d8:	6442                	ld	s0,16(sp)
    800036da:	0805053b          	zext.w	a0,a0
    800036de:	00000797          	auipc	a5,0x0
    800036e2:	70a7b523          	sd	a0,1802(a5) # 80003de8 <timestamp.0>
    800036e6:	64a2                	ld	s1,8(sp)
    800036e8:	6902                	ld	s2,0(sp)
    800036ea:	4521                	li	a0,8
    800036ec:	6105                	addi	sp,sp,32
    800036ee:	8082                	ret
    800036f0:	e4fff0ef          	jal	8000353e <uptime>
    800036f4:	00000697          	auipc	a3,0x0
    800036f8:	6f46b683          	ld	a3,1780(a3) # 80003de8 <timestamp.0>
    800036fc:	080507bb          	zext.w	a5,a0
    80003700:	1f400713          	li	a4,500
    80003704:	8f95                	sub	a5,a5,a3
    80003706:	f2f77ee3          	bgeu	a4,a5,80003642 <__am_input_read+0xc2>
    8000370a:	00000797          	auipc	a5,0x0
    8000370e:	6e67a783          	lw	a5,1766(a5) # 80003df0 <last_key.1>
    80003712:	00000717          	auipc	a4,0x0
    80003716:	6de74703          	lbu	a4,1758(a4) # 80003df0 <last_key.1>
    8000371a:	00040023          	sb	zero,0(s0)
    8000371e:	0087d61b          	srliw	a2,a5,0x8
    80003722:	0107d69b          	srliw	a3,a5,0x10
    80003726:	0187d79b          	srliw	a5,a5,0x18
    8000372a:	00f403a3          	sb	a5,7(s0)
    8000372e:	000400a3          	sb	zero,1(s0)
    80003732:	00040123          	sb	zero,2(s0)
    80003736:	000401a3          	sb	zero,3(s0)
    8000373a:	00c402a3          	sb	a2,5(s0)
    8000373e:	00d40323          	sb	a3,6(s0)
    80003742:	00e40223          	sb	a4,4(s0)
    80003746:	00000797          	auipc	a5,0x0
    8000374a:	6a07a523          	sw	zero,1706(a5) # 80003df0 <last_key.1>
    8000374e:	bdd5                	j	80003642 <__am_input_read+0xc2>
    80003750:	02c00613          	li	a2,44
    80003754:	00000597          	auipc	a1,0x0
    80003758:	17458593          	addi	a1,a1,372 # 800038c8 <__am_timer_read+0x15a>
    8000375c:	00000517          	auipc	a0,0x0
    80003760:	1b450513          	addi	a0,a0,436 # 80003910 <__am_timer_read+0x1a2>
    80003764:	da9ff0ef          	jal	8000350c <printf_>
    80003768:	8526                	mv	a0,s1
    8000376a:	bcbfe0ef          	jal	80002334 <_halt>

Disassembly of section .text.__am_timer_read:

000000008000376e <__am_timer_read>:
    8000376e:	4785                	li	a5,1
    80003770:	04f50363          	beq	a0,a5,800037b6 <__am_timer_read+0x48>
    80003774:	4789                	li	a5,2
    80003776:	00f50463          	beq	a0,a5,8000377e <__am_timer_read+0x10>
    8000377a:	4501                	li	a0,0
    8000377c:	8082                	ret
    8000377e:	cd027057          	vsetivli	zero,4,e32,m1,ta,ma
    80003782:	00000797          	auipc	a5,0x0
    80003786:	59e78793          	addi	a5,a5,1438 # 80003d20 <am_keycode+0x208>
    8000378a:	0207e087          	vle32.v	v1,(a5)
    8000378e:	00058a23          	sb	zero,20(a1)
    80003792:	00058aa3          	sb	zero,21(a1)
    80003796:	00058b23          	sb	zero,22(a1)
    8000379a:	00058ba3          	sb	zero,23(a1)
    8000379e:	00058823          	sb	zero,16(a1)
    800037a2:	0205e0a7          	vse32.v	v1,(a1)
    800037a6:	000588a3          	sb	zero,17(a1)
    800037aa:	00058923          	sb	zero,18(a1)
    800037ae:	000589a3          	sb	zero,19(a1)
    800037b2:	4561                	li	a0,24
    800037b4:	8082                	ret
    800037b6:	3800c7b7          	lui	a5,0x3800c
    800037ba:	17e1                	addi	a5,a5,-8 # 3800bff8 <i+0x3800bfd8>
    800037bc:	639c                	ld	a5,0(a5)
    800037be:	00000717          	auipc	a4,0x0
    800037c2:	63a73703          	ld	a4,1594(a4) # 80003df8 <boot_time>
    800037c6:	00058023          	sb	zero,0(a1)
    800037ca:	000580a3          	sb	zero,1(a1)
    800037ce:	9f99                	subw	a5,a5,a4
    800037d0:	0087d61b          	srliw	a2,a5,0x8
    800037d4:	0107d69b          	srliw	a3,a5,0x10
    800037d8:	0187d71b          	srliw	a4,a5,0x18
    800037dc:	00058123          	sb	zero,2(a1)
    800037e0:	000581a3          	sb	zero,3(a1)
    800037e4:	00f58223          	sb	a5,4(a1)
    800037e8:	00c582a3          	sb	a2,5(a1)
    800037ec:	00d58323          	sb	a3,6(a1)
    800037f0:	00e583a3          	sb	a4,7(a1)
    800037f4:	4521                	li	a0,8
    800037f6:	8082                	ret
